
0000c7c0 <EcfmCcHandleTaskInitFailure>:
    c7c0:	e1a0c00d 	mov	ip, sp
    c7c4:	e3a03000 	mov	r3, #0
    c7c8:	e92dd830 	push	{r4, r5, fp, ip, lr, pc}
    c7cc:	e24cb004 	sub	fp, ip, #4
    c7d0:	e59f4134 	ldr	r4, [pc, #308]	; c90c <EcfmCcHandleTaskInitFailure+0x14c>
    c7d4:	e24dd008 	sub	sp, sp, #8
    c7d8:	e50b3018 	str	r3, [fp, #-24]
    c7dc:	e59430b0 	ldr	r3, [r4, #176]	; 0xb0
    c7e0:	e3530000 	cmp	r3, #0
    c7e4:	1a000005 	bne	c800 <EcfmCcHandleTaskInitFailure+0x40>
    c7e8:	ea000010 	b	c830 <EcfmCcHandleTaskInitFailure+0x70>
    c7ec:	e51b3018 	ldr	r3, [fp, #-24]
    c7f0:	e2531000 	subs	r1, r3, #0
    c7f4:	0a000001 	beq	c800 <EcfmCcHandleTaskInitFailure+0x40>
    c7f8:	e594003c 	ldr	r0, [r4, #60]	; 0x3c
    c7fc:	eb2301e3 	bl	8ccf90 <MemReleaseMemBlock>
    c800:	e24b1018 	sub	r1, fp, #24
    c804:	e3a02004 	mov	r2, #4
    c808:	e3a03000 	mov	r3, #0
    c80c:	e59400b0 	ldr	r0, [r4, #176]	; 0xb0
    c810:	eb230d17 	bl	8cfc74 <OsixQueRecv>
    c814:	e3500000 	cmp	r0, #0
    c818:	e59f50ec 	ldr	r5, [pc, #236]	; c90c <EcfmCcHandleTaskInitFailure+0x14c>
    c81c:	0afffff2 	beq	c7ec <EcfmCcHandleTaskInitFailure+0x2c>
    c820:	e59500b0 	ldr	r0, [r5, #176]	; 0xb0
    c824:	eb230cc4 	bl	8cfb3c <OsixQueDel>
    c828:	e3a03000 	mov	r3, #0
    c82c:	e58530b0 	str	r3, [r5, #176]	; 0xb0
    c830:	e59f40d4 	ldr	r4, [pc, #212]	; c90c <EcfmCcHandleTaskInitFailure+0x14c>
    c834:	e59430ac 	ldr	r3, [r4, #172]	; 0xac
    c838:	e3530000 	cmp	r3, #0
    c83c:	1a000005 	bne	c858 <EcfmCcHandleTaskInitFailure+0x98>
    c840:	ea000010 	b	c888 <EcfmCcHandleTaskInitFailure+0xc8>
    c844:	e51b3018 	ldr	r3, [fp, #-24]
    c848:	e2531000 	subs	r1, r3, #0
    c84c:	0a000001 	beq	c858 <EcfmCcHandleTaskInitFailure+0x98>
    c850:	e594003c 	ldr	r0, [r4, #60]	; 0x3c
    c854:	eb2301cd 	bl	8ccf90 <MemReleaseMemBlock>
    c858:	e24b1018 	sub	r1, fp, #24
    c85c:	e3a02004 	mov	r2, #4
    c860:	e3a03000 	mov	r3, #0
    c864:	e59400ac 	ldr	r0, [r4, #172]	; 0xac
    c868:	eb230d01 	bl	8cfc74 <OsixQueRecv>
    c86c:	e3500000 	cmp	r0, #0
    c870:	e59f5094 	ldr	r5, [pc, #148]	; c90c <EcfmCcHandleTaskInitFailure+0x14c>
    c874:	0afffff2 	beq	c844 <EcfmCcHandleTaskInitFailure+0x84>
    c878:	e59500ac 	ldr	r0, [r5, #172]	; 0xac
    c87c:	eb230cae 	bl	8cfb3c <OsixQueDel>
    c880:	e3a03000 	mov	r3, #0
    c884:	e58530ac 	str	r3, [r5, #172]	; 0xac
    c888:	e59f407c 	ldr	r4, [pc, #124]	; c90c <EcfmCcHandleTaskInitFailure+0x14c>
    c88c:	e59430b4 	ldr	r3, [r4, #180]	; 0xb4
    c890:	e3530000 	cmp	r3, #0
    c894:	1a000005 	bne	c8b0 <EcfmCcHandleTaskInitFailure+0xf0>
    c898:	ea000010 	b	c8e0 <EcfmCcHandleTaskInitFailure+0x120>
    c89c:	e51b3018 	ldr	r3, [fp, #-24]
    c8a0:	e2531000 	subs	r1, r3, #0
    c8a4:	0a000001 	beq	c8b0 <EcfmCcHandleTaskInitFailure+0xf0>
    c8a8:	e594003c 	ldr	r0, [r4, #60]	; 0x3c
    c8ac:	eb2301b7 	bl	8ccf90 <MemReleaseMemBlock>
    c8b0:	e24b1018 	sub	r1, fp, #24
    c8b4:	e3a02004 	mov	r2, #4
    c8b8:	e3a03000 	mov	r3, #0
    c8bc:	e59400b4 	ldr	r0, [r4, #180]	; 0xb4
    c8c0:	eb230ceb 	bl	8cfc74 <OsixQueRecv>
    c8c4:	e3500000 	cmp	r0, #0
    c8c8:	e59f503c 	ldr	r5, [pc, #60]	; c90c <EcfmCcHandleTaskInitFailure+0x14c>
    c8cc:	0afffff2 	beq	c89c <EcfmCcHandleTaskInitFailure+0xdc>
    c8d0:	e59500b4 	ldr	r0, [r5, #180]	; 0xb4
    c8d4:	eb230c98 	bl	8cfb3c <OsixQueDel>
    c8d8:	e3a03000 	mov	r3, #0
    c8dc:	e58530b4 	str	r3, [r5, #180]	; 0xb4
    c8e0:	e59f4024 	ldr	r4, [pc, #36]	; c90c <EcfmCcHandleTaskInitFailure+0x14c>
    c8e4:	eb1a7c3c 	bl	6ab9dc <EcfmCcDeInitGlobalInfo>
    c8e8:	eb1a9b14 	bl	6b3540 <EcfmCcTmrDeInit>
    c8ec:	e59400b8 	ldr	r0, [r4, #184]	; 0xb8
    c8f0:	e3500000 	cmp	r0, #0
    c8f4:	0a000002 	beq	c904 <EcfmCcHandleTaskInitFailure+0x144>
    c8f8:	eb2311c9 	bl	8d1024 <OsixSemDel>
    c8fc:	e3a03000 	mov	r3, #0
    c900:	e58430b8 	str	r3, [r4, #184]	; 0xb8
    c904:	e24bd014 	sub	sp, fp, #20
    c908:	e89da830 	ldm	sp, {r4, r5, fp, sp, pc}
    c90c:	03db0978 	bicseq	r0, fp, #1966080	; 0x1e0000

0000c910 <Cameo_PrintCpuL2SingleRule>:
    c910:	e1a0c00d 	mov	ip, sp
    c914:	e92ddff0 	push	{r4, r5, r6, r7, r8, r9, sl, fp, ip, lr, pc}
    c918:	e24dde53 	sub	sp, sp, #1328	; 0x530
    c91c:	e59f8378 	ldr	r8, [pc, #888]	; cc9c <Cameo_PrintCpuL2SingleRule+0x38c>
    c920:	e24cb004 	sub	fp, ip, #4
    c924:	e24dd00c 	sub	sp, sp, #12
    c928:	e3a04000 	mov	r4, #0
    c92c:	e3e0c000 	mvn	ip, #0
    c930:	e1a03008 	mov	r3, r8
    c934:	e1a06001 	mov	r6, r1
    c938:	e1a07000 	mov	r7, r0
    c93c:	e59f135c 	ldr	r1, [pc, #860]	; cca0 <Cameo_PrintCpuL2SingleRule+0x390>
    c940:	e1a0a002 	mov	sl, r2
    c944:	e3a00004 	mov	r0, #4
    c948:	e3a02fed 	mov	r2, #948	; 0x3b4
    c94c:	e50bc55c 	str	ip, [fp, #-1372]	; 0x55c
    c950:	e50b4564 	str	r4, [fp, #-1380]	; 0x564
    c954:	e50b4560 	str	r4, [fp, #-1376]	; 0x560
    c958:	e50b4558 	str	r4, [fp, #-1368]	; 0x558
    c95c:	e50b4554 	str	r4, [fp, #-1364]	; 0x554
    c960:	eb23441b 	bl	8dd9d4 <allocmem_octetstring_flowtrace>
    c964:	e1a01004 	mov	r1, r4
    c968:	e3a02004 	mov	r2, #4
    c96c:	e1a05000 	mov	r5, r0
    c970:	e5900000 	ldr	r0, [r0]
    c974:	ebfffe14 	bl	c1cc <_init+0x7f8>
    c978:	e24b0e42 	sub	r0, fp, #1056	; 0x420
    c97c:	e1a01004 	mov	r1, r4
    c980:	e3a02b01 	mov	r2, #1024	; 0x400
    c984:	e240000c 	sub	r0, r0, #12
    c988:	ebfffe0f 	bl	c1cc <_init+0x7f8>
    c98c:	e24b0e52 	sub	r0, fp, #1312	; 0x520
    c990:	e1a01004 	mov	r1, r4
    c994:	e3a02c01 	mov	r2, #256	; 0x100
    c998:	e240000c 	sub	r0, r0, #12
    c99c:	ebfffe0a 	bl	c1cc <_init+0x7f8>
    c9a0:	e24b1e56 	sub	r1, fp, #1376	; 0x560
    c9a4:	e1a00006 	mov	r0, r6
    c9a8:	e2411004 	sub	r1, r1, #4
    c9ac:	eb2446db 	bl	91e520 <nmhGetIssCpuFilterL2FilterAction>
    c9b0:	e3500001 	cmp	r0, #1
    c9b4:	1a00009a 	bne	cc24 <Cameo_PrintCpuL2SingleRule+0x314>
    c9b8:	e51b3564 	ldr	r3, [fp, #-1380]	; 0x564
    c9bc:	e1a00006 	mov	r0, r6
    c9c0:	e1a01005 	mov	r1, r5
    c9c4:	e2433001 	sub	r3, r3, #1
    c9c8:	e3530001 	cmp	r3, #1
    c9cc:	90888103 	addls	r8, r8, r3, lsl #2
    c9d0:	859f42cc 	ldrhi	r4, [pc, #716]	; cca4 <Cameo_PrintCpuL2SingleRule+0x394>
    c9d4:	9598401c 	ldrls	r4, [r8, #28]
    c9d8:	eb2446e9 	bl	91e584 <nmhGetIssCpuFilterL2FilterInPortList>
    c9dc:	e3500001 	cmp	r0, #1
    c9e0:	e1a08000 	mov	r8, r0
    c9e4:	1a00008e 	bne	cc24 <Cameo_PrintCpuL2SingleRule+0x314>
    c9e8:	e24b2e42 	sub	r2, fp, #1056	; 0x420
    c9ec:	e5951004 	ldr	r1, [r5, #4]
    c9f0:	e242200c 	sub	r2, r2, #12
    c9f4:	e3a03b01 	mov	r3, #1024	; 0x400
    c9f8:	e5950000 	ldr	r0, [r5]
    c9fc:	eb276877 	bl	9e6be0 <Cameo_DlinkConvertOctetToPort>
    ca00:	e1a00006 	mov	r0, r6
    ca04:	e24b1e56 	sub	r1, fp, #1376	; 0x560
    ca08:	eb245573 	bl	921fdc <CAMEO_nmhGetIssCpuFilterL2FilterRuleMask>
    ca0c:	e3500001 	cmp	r0, #1
    ca10:	e1a09000 	mov	r9, r0
    ca14:	1a000083 	bne	cc28 <Cameo_PrintCpuL2SingleRule+0x318>
    ca18:	e31a0002 	tst	sl, #2
    ca1c:	0a000015 	beq	ca78 <Cameo_PrintCpuL2SingleRule+0x168>
    ca20:	e51b3560 	ldr	r3, [fp, #-1376]	; 0x560
    ca24:	e3130002 	tst	r3, #2
    ca28:	0a000012 	beq	ca78 <Cameo_PrintCpuL2SingleRule+0x168>
    ca2c:	e24b8d15 	sub	r8, fp, #1344	; 0x540
    ca30:	e3a03000 	mov	r3, #0
    ca34:	e248800c 	sub	r8, r8, #12
    ca38:	e1a00006 	mov	r0, r6
    ca3c:	e04830b4 	strh	r3, [r8], #-4
    ca40:	e1a01008 	mov	r1, r8
    ca44:	e50b3550 	str	r3, [fp, #-1360]	; 0x550
    ca48:	eb244723 	bl	91e6dc <nmhGetIssCpuFilterL2FilterSrcMacAddr>
    ca4c:	e3500001 	cmp	r0, #1
    ca50:	1a000073 	bne	cc24 <Cameo_PrintCpuL2SingleRule+0x314>
    ca54:	e1a00008 	mov	r0, r8
    ca58:	e24b1d15 	sub	r1, fp, #1344	; 0x540
    ca5c:	eb26719c 	bl	9a90d4 <IssPrintMacAddress>
    ca60:	e24b0e52 	sub	r0, fp, #1312	; 0x520
    ca64:	e59f123c 	ldr	r1, [pc, #572]	; cca8 <Cameo_PrintCpuL2SingleRule+0x398>
    ca68:	e240000c 	sub	r0, r0, #12
    ca6c:	e3a02012 	mov	r2, #18
    ca70:	e24b3d15 	sub	r3, fp, #1344	; 0x540
    ca74:	ebfffe4f 	bl	c3b8 <_init+0x9e4>
    ca78:	e31a0001 	tst	sl, #1
    ca7c:	0a00001b 	beq	caf0 <Cameo_PrintCpuL2SingleRule+0x1e0>
    ca80:	e51b3560 	ldr	r3, [fp, #-1376]	; 0x560
    ca84:	e3130001 	tst	r3, #1
    ca88:	0a000018 	beq	caf0 <Cameo_PrintCpuL2SingleRule+0x1e0>
    ca8c:	e24b8e53 	sub	r8, fp, #1328	; 0x530
    ca90:	e24b1d15 	sub	r1, fp, #1344	; 0x540
    ca94:	e3a03000 	mov	r3, #0
    ca98:	e248800c 	sub	r8, r8, #12
    ca9c:	e1a00006 	mov	r0, r6
    caa0:	e2411008 	sub	r1, r1, #8
    caa4:	e50b3548 	str	r3, [fp, #-1352]	; 0x548
    caa8:	e14830b8 	strh	r3, [r8, #-8]
    caac:	eb244739 	bl	91e798 <nmhGetIssCpuFilterL2FilterDstMacAddr>
    cab0:	e3500001 	cmp	r0, #1
    cab4:	1a00005a 	bne	cc24 <Cameo_PrintCpuL2SingleRule+0x314>
    cab8:	e24b0d15 	sub	r0, fp, #1344	; 0x540
    cabc:	e24b1d15 	sub	r1, fp, #1344	; 0x540
    cac0:	e2400008 	sub	r0, r0, #8
    cac4:	eb267182 	bl	9a90d4 <IssPrintMacAddress>
    cac8:	e24b0e52 	sub	r0, fp, #1312	; 0x520
    cacc:	e240000c 	sub	r0, r0, #12
    cad0:	ebfffe9e 	bl	c550 <_init+0xb7c>
    cad4:	e24b3e52 	sub	r3, fp, #1312	; 0x520
    cad8:	e59f11cc 	ldr	r1, [pc, #460]	; ccac <Cameo_PrintCpuL2SingleRule+0x39c>
    cadc:	e243300c 	sub	r3, r3, #12
    cae0:	e3a02017 	mov	r2, #23
    cae4:	e0830000 	add	r0, r3, r0
    cae8:	e24b3d15 	sub	r3, fp, #1344	; 0x540
    caec:	ebfffe31 	bl	c3b8 <_init+0x9e4>
    caf0:	e31a0004 	tst	sl, #4
    caf4:	0a00001e 	beq	cb74 <Cameo_PrintCpuL2SingleRule+0x264>
    caf8:	e51b3560 	ldr	r3, [fp, #-1376]	; 0x560
    cafc:	e3130004 	tst	r3, #4
    cb00:	0a00001b 	beq	cb74 <Cameo_PrintCpuL2SingleRule+0x264>
    cb04:	e24b1e55 	sub	r1, fp, #1360	; 0x550
    cb08:	e1a00006 	mov	r0, r6
    cb0c:	e241100c 	sub	r1, r1, #12
    cb10:	eb2446d0 	bl	91e658 <nmhGetIssCpuFilterL2FilterVlanId>
    cb14:	e3500001 	cmp	r0, #1
    cb18:	1a000041 	bne	cc24 <Cameo_PrintCpuL2SingleRule+0x314>
    cb1c:	e51b855c 	ldr	r8, [fp, #-1372]	; 0x55c
    cb20:	e24b0e52 	sub	r0, fp, #1312	; 0x520
    cb24:	e240000c 	sub	r0, r0, #12
    cb28:	e3780001 	cmn	r8, #1
    cb2c:	1a000008 	bne	cb54 <Cameo_PrintCpuL2SingleRule+0x244>
    cb30:	ebfffe86 	bl	c550 <_init+0xb7c>
    cb34:	e24b3e52 	sub	r3, fp, #1312	; 0x520
    cb38:	e59f1170 	ldr	r1, [pc, #368]	; ccb0 <Cameo_PrintCpuL2SingleRule+0x3a0>
    cb3c:	e243300c 	sub	r3, r3, #12
    cb40:	e3a02007 	mov	r2, #7
    cb44:	e0830000 	add	r0, r3, r0
    cb48:	e59f3164 	ldr	r3, [pc, #356]	; ccb4 <Cameo_PrintCpuL2SingleRule+0x3a4>
    cb4c:	ebfffe19 	bl	c3b8 <_init+0x9e4>
    cb50:	ea000007 	b	cb74 <Cameo_PrintCpuL2SingleRule+0x264>
    cb54:	ebfffe7d 	bl	c550 <_init+0xb7c>
    cb58:	e24b3e52 	sub	r3, fp, #1312	; 0x520
    cb5c:	e59f1154 	ldr	r1, [pc, #340]	; ccb8 <Cameo_PrintCpuL2SingleRule+0x3a8>
    cb60:	e243300c 	sub	r3, r3, #12
    cb64:	e3a02007 	mov	r2, #7
    cb68:	e0830000 	add	r0, r3, r0
    cb6c:	e1a03008 	mov	r3, r8
    cb70:	ebfffe10 	bl	c3b8 <_init+0x9e4>
    cb74:	e31a0008 	tst	sl, #8
    cb78:	0a000012 	beq	cbc8 <Cameo_PrintCpuL2SingleRule+0x2b8>
    cb7c:	e51b3560 	ldr	r3, [fp, #-1376]	; 0x560
    cb80:	e3130008 	tst	r3, #8
    cb84:	0a00000f 	beq	cbc8 <Cameo_PrintCpuL2SingleRule+0x2b8>
    cb88:	e24b1e55 	sub	r1, fp, #1360	; 0x550
    cb8c:	e1a00006 	mov	r0, r6
    cb90:	e2411008 	sub	r1, r1, #8
    cb94:	eb244789 	bl	91e9c0 <nmhGetIssCpuFilterL2Filter1pPeriority>
    cb98:	e3500001 	cmp	r0, #1
    cb9c:	1a000020 	bne	cc24 <Cameo_PrintCpuL2SingleRule+0x314>
    cba0:	e24b0e52 	sub	r0, fp, #1312	; 0x520
    cba4:	e240000c 	sub	r0, r0, #12
    cba8:	ebfffe68 	bl	c550 <_init+0xb7c>
    cbac:	e24b3e52 	sub	r3, fp, #1312	; 0x520
    cbb0:	e59f1104 	ldr	r1, [pc, #260]	; ccbc <Cameo_PrintCpuL2SingleRule+0x3ac>
    cbb4:	e243300c 	sub	r3, r3, #12
    cbb8:	e3a02009 	mov	r2, #9
    cbbc:	e0830000 	add	r0, r3, r0
    cbc0:	e51b3558 	ldr	r3, [fp, #-1368]	; 0x558
    cbc4:	ebfffdfb 	bl	c3b8 <_init+0x9e4>
    cbc8:	e21a8010 	ands	r8, sl, #16
    cbcc:	0a000015 	beq	cc28 <Cameo_PrintCpuL2SingleRule+0x318>
    cbd0:	e51b3560 	ldr	r3, [fp, #-1376]	; 0x560
    cbd4:	e2138010 	ands	r8, r3, #16
    cbd8:	0a000012 	beq	cc28 <Cameo_PrintCpuL2SingleRule+0x318>
    cbdc:	e24b1e55 	sub	r1, fp, #1360	; 0x550
    cbe0:	e1a00006 	mov	r0, r6
    cbe4:	e2411004 	sub	r1, r1, #4
    cbe8:	eb244717 	bl	91e84c <nmhGetIssCpuFilterL2FilterProtocolType>
    cbec:	e3500001 	cmp	r0, #1
    cbf0:	1a00000b 	bne	cc24 <Cameo_PrintCpuL2SingleRule+0x314>
    cbf4:	e24b0e52 	sub	r0, fp, #1312	; 0x520
    cbf8:	e3a08000 	mov	r8, #0
    cbfc:	e240000c 	sub	r0, r0, #12
    cc00:	ebfffe52 	bl	c550 <_init+0xb7c>
    cc04:	e24b3e52 	sub	r3, fp, #1312	; 0x520
    cc08:	e59f10b0 	ldr	r1, [pc, #176]	; ccc0 <Cameo_PrintCpuL2SingleRule+0x3b0>
    cc0c:	e243300c 	sub	r3, r3, #12
    cc10:	e3a0200d 	mov	r2, #13
    cc14:	e0830000 	add	r0, r3, r0
    cc18:	e51b3554 	ldr	r3, [fp, #-1364]	; 0x554
    cc1c:	ebfffde5 	bl	c3b8 <_init+0x9e4>
    cc20:	ea000000 	b	cc28 <Cameo_PrintCpuL2SingleRule+0x318>
    cc24:	e3a08001 	mov	r8, #1
    cc28:	e1a00005 	mov	r0, r5
    cc2c:	eb23432c 	bl	8dd8e4 <free_octetstring>
    cc30:	e3580000 	cmp	r8, #0
    cc34:	13a00001 	movne	r0, #1
    cc38:	1a000015 	bne	cc94 <Cameo_PrintCpuL2SingleRule+0x384>
    cc3c:	e1a00006 	mov	r0, r6
    cc40:	e3a01005 	mov	r1, #5
    cc44:	eb45b3f7 	bl	1179c28 <__aeabi_uidivmod>
    cc48:	e3510000 	cmp	r1, #0
    cc4c:	e1a03004 	mov	r3, r4
    cc50:	11a02001 	movne	r2, r1
    cc54:	03a02005 	moveq	r2, #5
    cc58:	e59f1064 	ldr	r1, [pc, #100]	; ccc4 <Cameo_PrintCpuL2SingleRule+0x3b4>
    cc5c:	e1a00007 	mov	r0, r7
    cc60:	eb0420a2 	bl	114ef0 <CliPrintf>
    cc64:	e24b2e42 	sub	r2, fp, #1056	; 0x420
    cc68:	e59f1058 	ldr	r1, [pc, #88]	; ccc8 <Cameo_PrintCpuL2SingleRule+0x3b8>
    cc6c:	e242200c 	sub	r2, r2, #12
    cc70:	e1a00007 	mov	r0, r7
    cc74:	eb04209d 	bl	114ef0 <CliPrintf>
    cc78:	e24b2e52 	sub	r2, fp, #1312	; 0x520
    cc7c:	e1a00007 	mov	r0, r7
    cc80:	e59f1044 	ldr	r1, [pc, #68]	; cccc <Cameo_PrintCpuL2SingleRule+0x3bc>
    cc84:	e242200c 	sub	r2, r2, #12
    cc88:	eb042098 	bl	114ef0 <CliPrintf>
    cc8c:	e1a00008 	mov	r0, r8
    cc90:	eaffffff 	b	cc94 <Cameo_PrintCpuL2SingleRule+0x384>
    cc94:	e24bd028 	sub	sp, fp, #40	; 0x28
    cc98:	e89daff0 	ldm	sp, {r4, r5, r6, r7, r8, r9, sl, fp, sp, pc}
    cc9c:	0134d9f4 			; <UNDEFINED> instruction: 0x0134d9f4
    cca0:	0134f810 	teqeq	r4, r0, lsl r8
    cca4:	0134f800 	teqeq	r4, r0, lsl #16
    cca8:	0134f868 	teqeq	r4, r8, ror #16
    ccac:	0134f880 	teqeq	r4, r0, lsl #17
    ccb0:	0134f89c 			; <UNDEFINED> instruction: 0x0134f89c
    ccb4:	0121fb94 	msreq	SP_irq, r4
    ccb8:	0134f8ac 	teqeq	r4, ip, lsr #17
    ccbc:	0134f8bc 			; <UNDEFINED> instruction: 0x0134f8bc
    ccc0:	0134f8cc 	teqeq	r4, ip, asr #17
    ccc4:	0134f8e4 	teqeq	r4, r4, ror #17
    ccc8:	0134f904 	teqeq	r4, r4, lsl #18
    cccc:	0134f910 	teqeq	r4, r0, lsl r9

0000ccd0 <Cameo_PrintCpuUdfSingleRule>:
    ccd0:	e1a0c00d 	mov	ip, sp
    ccd4:	e92ddff0 	push	{r4, r5, r6, r7, r8, r9, sl, fp, ip, lr, pc}
    ccd8:	e24dde62 	sub	sp, sp, #1568	; 0x620
    ccdc:	e59f8418 	ldr	r8, [pc, #1048]	; d0fc <Cameo_PrintCpuUdfSingleRule+0x42c>
    cce0:	e24cb004 	sub	fp, ip, #4
    cce4:	e24dd004 	sub	sp, sp, #4
    cce8:	e3a04000 	mov	r4, #0
    ccec:	e1a07001 	mov	r7, r1
    ccf0:	e2883024 	add	r3, r8, #36	; 0x24
    ccf4:	e59f1404 	ldr	r1, [pc, #1028]	; d100 <Cameo_PrintCpuUdfSingleRule+0x430>
    ccf8:	e1a05000 	mov	r5, r0
    ccfc:	e1a0a002 	mov	sl, r2
    cd00:	e3a00004 	mov	r0, #4
    cd04:	e30026c8 	movw	r2, #1736	; 0x6c8
    cd08:	e50b4644 	str	r4, [fp, #-1604]	; 0x644
    cd0c:	e50b4640 	str	r4, [fp, #-1600]	; 0x640
    cd10:	eb23432f 	bl	8dd9d4 <allocmem_octetstring_flowtrace>
    cd14:	e1a06000 	mov	r6, r0
    cd18:	e24b0e52 	sub	r0, fp, #1312	; 0x520
    cd1c:	e1a01004 	mov	r1, r4
    cd20:	e3a02c01 	mov	r2, #256	; 0x100
    cd24:	e240000c 	sub	r0, r0, #12
    cd28:	ebfffd27 	bl	c1cc <_init+0x7f8>
    cd2c:	e24b0e62 	sub	r0, fp, #1568	; 0x620
    cd30:	e1a01004 	mov	r1, r4
    cd34:	e3a02c01 	mov	r2, #256	; 0x100
    cd38:	e240000c 	sub	r0, r0, #12
    cd3c:	ebfffd22 	bl	c1cc <_init+0x7f8>
    cd40:	e24b0e63 	sub	r0, fp, #1584	; 0x630
    cd44:	e1a01004 	mov	r1, r4
    cd48:	e3a02010 	mov	r2, #16
    cd4c:	e240000c 	sub	r0, r0, #12
    cd50:	ebfffd1d 	bl	c1cc <_init+0x7f8>
    cd54:	e24b0e42 	sub	r0, fp, #1056	; 0x420
    cd58:	e1a01004 	mov	r1, r4
    cd5c:	e3a02b01 	mov	r2, #1024	; 0x400
    cd60:	e240000c 	sub	r0, r0, #12
    cd64:	ebfffd18 	bl	c1cc <_init+0x7f8>
    cd68:	e1a01004 	mov	r1, r4
    cd6c:	e3a02004 	mov	r2, #4
    cd70:	e5960000 	ldr	r0, [r6]
    cd74:	ebfffd14 	bl	c1cc <_init+0x7f8>
    cd78:	e24b3e63 	sub	r3, fp, #1584	; 0x630
    cd7c:	e1a00007 	mov	r0, r7
    cd80:	e243300c 	sub	r3, r3, #12
    cd84:	e2431008 	sub	r1, r3, #8
    cd88:	eb244da4 	bl	920420 <nmhGetIssCpuFilterUdfFilterAction>
    cd8c:	e3500001 	cmp	r0, #1
    cd90:	1a0000b3 	bne	d064 <Cameo_PrintCpuUdfSingleRule+0x394>
    cd94:	e51b3644 	ldr	r3, [fp, #-1604]	; 0x644
    cd98:	e1a00007 	mov	r0, r7
    cd9c:	e1a01006 	mov	r1, r6
    cda0:	e2433001 	sub	r3, r3, #1
    cda4:	e3530001 	cmp	r3, #1
    cda8:	90888103 	addls	r8, r8, r3, lsl #2
    cdac:	859f4350 	ldrhi	r4, [pc, #848]	; d104 <Cameo_PrintCpuUdfSingleRule+0x434>
    cdb0:	95984040 	ldrls	r4, [r8, #64]	; 0x40
    cdb4:	eb244da4 	bl	92044c <nmhGetIssCpuFilterUdfFilterInPortList>
    cdb8:	e3500001 	cmp	r0, #1
    cdbc:	e1a08000 	mov	r8, r0
    cdc0:	1a0000a7 	bne	d064 <Cameo_PrintCpuUdfSingleRule+0x394>
    cdc4:	e24b2e42 	sub	r2, fp, #1056	; 0x420
    cdc8:	e5960000 	ldr	r0, [r6]
    cdcc:	e242200c 	sub	r2, r2, #12
    cdd0:	e5961004 	ldr	r1, [r6, #4]
    cdd4:	e3a03b01 	mov	r3, #1024	; 0x400
    cdd8:	eb276780 	bl	9e6be0 <Cameo_DlinkConvertOctetToPort>
    cddc:	e1a00007 	mov	r0, r7
    cde0:	e24b1d19 	sub	r1, fp, #1600	; 0x640
    cde4:	eb245490 	bl	92202c <CAMEO_nmhGetIssCpuFilterUdfFilterRuleMask>
    cde8:	e3500001 	cmp	r0, #1
    cdec:	e1a09000 	mov	r9, r0
    cdf0:	1a00009c 	bne	d068 <Cameo_PrintCpuUdfSingleRule+0x398>
    cdf4:	e59fe30c 	ldr	lr, [pc, #780]	; d108 <Cameo_PrintCpuUdfSingleRule+0x438>
    cdf8:	e24bce62 	sub	ip, fp, #1568	; 0x620
    cdfc:	e24cc00c 	sub	ip, ip, #12
    ce00:	e31a0001 	tst	sl, #1
    ce04:	e8be000f 	ldm	lr!, {r0, r1, r2, r3}
    ce08:	e8ac000f 	stmia	ip!, {r0, r1, r2, r3}
    ce0c:	e89e000f 	ldm	lr, {r0, r1, r2, r3}
    ce10:	e88c000f 	stm	ip, {r0, r1, r2, r3}
    ce14:	0a000017 	beq	ce78 <Cameo_PrintCpuUdfSingleRule+0x1a8>
    ce18:	e51b3640 	ldr	r3, [fp, #-1600]	; 0x640
    ce1c:	e3130c01 	tst	r3, #256	; 0x100
    ce20:	0a000014 	beq	ce78 <Cameo_PrintCpuUdfSingleRule+0x1a8>
    ce24:	e24b0e63 	sub	r0, fp, #1584	; 0x630
    ce28:	e3a02010 	mov	r2, #16
    ce2c:	e3a01000 	mov	r1, #0
    ce30:	e240000c 	sub	r0, r0, #12
    ce34:	ebfffce4 	bl	c1cc <_init+0x7f8>
    ce38:	e24b1e63 	sub	r1, fp, #1584	; 0x630
    ce3c:	e1a00007 	mov	r0, r7
    ce40:	e241100c 	sub	r1, r1, #12
    ce44:	eb244e48 	bl	92076c <nmhGetIssCpuFilterUdfFilterOffset1>
    ce48:	e3500000 	cmp	r0, #0
    ce4c:	0a000084 	beq	d064 <Cameo_PrintCpuUdfSingleRule+0x394>
    ce50:	e51b3634 	ldr	r3, [fp, #-1588]	; 0x634
    ce54:	e24b0e52 	sub	r0, fp, #1312	; 0x520
    ce58:	e240000c 	sub	r0, r0, #12
    ce5c:	e59f12a8 	ldr	r1, [pc, #680]	; d10c <Cameo_PrintCpuUdfSingleRule+0x43c>
    ce60:	e51b263c 	ldr	r2, [fp, #-1596]	; 0x63c
    ce64:	e58d3000 	str	r3, [sp]
    ce68:	e51b3630 	ldr	r3, [fp, #-1584]	; 0x630
    ce6c:	e58d3004 	str	r3, [sp, #4]
    ce70:	e51b3638 	ldr	r3, [fp, #-1592]	; 0x638
    ce74:	ebfffd4f 	bl	c3b8 <_init+0x9e4>
    ce78:	e31a0002 	tst	sl, #2
    ce7c:	0a00001b 	beq	cef0 <Cameo_PrintCpuUdfSingleRule+0x220>
    ce80:	e51b3640 	ldr	r3, [fp, #-1600]	; 0x640
    ce84:	e3130c02 	tst	r3, #512	; 0x200
    ce88:	0a000018 	beq	cef0 <Cameo_PrintCpuUdfSingleRule+0x220>
    ce8c:	e24b0e63 	sub	r0, fp, #1584	; 0x630
    ce90:	e3a02010 	mov	r2, #16
    ce94:	e3a01000 	mov	r1, #0
    ce98:	e240000c 	sub	r0, r0, #12
    ce9c:	ebfffcca 	bl	c1cc <_init+0x7f8>
    cea0:	e24b1e63 	sub	r1, fp, #1584	; 0x630
    cea4:	e1a00007 	mov	r0, r7
    cea8:	e241100c 	sub	r1, r1, #12
    ceac:	eb244e1b 	bl	920720 <nmhGetIssCpuFilterUdfFilterOffset2>
    ceb0:	e3500000 	cmp	r0, #0
    ceb4:	0a00006a 	beq	d064 <Cameo_PrintCpuUdfSingleRule+0x394>
    ceb8:	e24b0e52 	sub	r0, fp, #1312	; 0x520
    cebc:	e240000c 	sub	r0, r0, #12
    cec0:	ebfffda2 	bl	c550 <_init+0xb7c>
    cec4:	e24b3e52 	sub	r3, fp, #1312	; 0x520
    cec8:	e59f1240 	ldr	r1, [pc, #576]	; d110 <Cameo_PrintCpuUdfSingleRule+0x440>
    cecc:	e243300c 	sub	r3, r3, #12
    ced0:	e51b263c 	ldr	r2, [fp, #-1596]	; 0x63c
    ced4:	e0830000 	add	r0, r3, r0
    ced8:	e51b3634 	ldr	r3, [fp, #-1588]	; 0x634
    cedc:	e58d3000 	str	r3, [sp]
    cee0:	e51b3630 	ldr	r3, [fp, #-1584]	; 0x630
    cee4:	e58d3004 	str	r3, [sp, #4]
    cee8:	e51b3638 	ldr	r3, [fp, #-1592]	; 0x638
    ceec:	ebfffd31 	bl	c3b8 <_init+0x9e4>
    cef0:	e31a0004 	tst	sl, #4
    cef4:	0a00001b 	beq	cf68 <Cameo_PrintCpuUdfSingleRule+0x298>
    cef8:	e51b3640 	ldr	r3, [fp, #-1600]	; 0x640
    cefc:	e3130b01 	tst	r3, #1024	; 0x400
    cf00:	0a000018 	beq	cf68 <Cameo_PrintCpuUdfSingleRule+0x298>
    cf04:	e24b0e63 	sub	r0, fp, #1584	; 0x630
    cf08:	e3a02010 	mov	r2, #16
    cf0c:	e3a01000 	mov	r1, #0
    cf10:	e240000c 	sub	r0, r0, #12
    cf14:	ebfffcac 	bl	c1cc <_init+0x7f8>
    cf18:	e24b1e63 	sub	r1, fp, #1584	; 0x630
    cf1c:	e1a00007 	mov	r0, r7
    cf20:	e241100c 	sub	r1, r1, #12
    cf24:	eb244dea 	bl	9206d4 <nmhGetIssCpuFilterUdfFilterOffset3>
    cf28:	e3500000 	cmp	r0, #0
    cf2c:	0a00004c 	beq	d064 <Cameo_PrintCpuUdfSingleRule+0x394>
    cf30:	e24b0e52 	sub	r0, fp, #1312	; 0x520
    cf34:	e240000c 	sub	r0, r0, #12
    cf38:	ebfffd84 	bl	c550 <_init+0xb7c>
    cf3c:	e24b3e52 	sub	r3, fp, #1312	; 0x520
    cf40:	e59f11cc 	ldr	r1, [pc, #460]	; d114 <Cameo_PrintCpuUdfSingleRule+0x444>
    cf44:	e243300c 	sub	r3, r3, #12
    cf48:	e51b263c 	ldr	r2, [fp, #-1596]	; 0x63c
    cf4c:	e0830000 	add	r0, r3, r0
    cf50:	e51b3634 	ldr	r3, [fp, #-1588]	; 0x634
    cf54:	e58d3000 	str	r3, [sp]
    cf58:	e51b3630 	ldr	r3, [fp, #-1584]	; 0x630
    cf5c:	e58d3004 	str	r3, [sp, #4]
    cf60:	e51b3638 	ldr	r3, [fp, #-1592]	; 0x638
    cf64:	ebfffd13 	bl	c3b8 <_init+0x9e4>
    cf68:	e31a0008 	tst	sl, #8
    cf6c:	0a00001b 	beq	cfe0 <Cameo_PrintCpuUdfSingleRule+0x310>
    cf70:	e51b3640 	ldr	r3, [fp, #-1600]	; 0x640
    cf74:	e3130b02 	tst	r3, #2048	; 0x800
    cf78:	0a000018 	beq	cfe0 <Cameo_PrintCpuUdfSingleRule+0x310>
    cf7c:	e24b0e63 	sub	r0, fp, #1584	; 0x630
    cf80:	e3a02010 	mov	r2, #16
    cf84:	e3a01000 	mov	r1, #0
    cf88:	e240000c 	sub	r0, r0, #12
    cf8c:	ebfffc8e 	bl	c1cc <_init+0x7f8>
    cf90:	e24b1e63 	sub	r1, fp, #1584	; 0x630
    cf94:	e1a00007 	mov	r0, r7
    cf98:	e241100c 	sub	r1, r1, #12
    cf9c:	eb244db9 	bl	920688 <nmhGetIssCpuFilterUdfFilterOffset4>
    cfa0:	e3500000 	cmp	r0, #0
    cfa4:	0a00002e 	beq	d064 <Cameo_PrintCpuUdfSingleRule+0x394>
    cfa8:	e24b0e52 	sub	r0, fp, #1312	; 0x520
    cfac:	e240000c 	sub	r0, r0, #12
    cfb0:	ebfffd66 	bl	c550 <_init+0xb7c>
    cfb4:	e24b3e52 	sub	r3, fp, #1312	; 0x520
    cfb8:	e59f1158 	ldr	r1, [pc, #344]	; d118 <Cameo_PrintCpuUdfSingleRule+0x448>
    cfbc:	e243300c 	sub	r3, r3, #12
    cfc0:	e51b263c 	ldr	r2, [fp, #-1596]	; 0x63c
    cfc4:	e0830000 	add	r0, r3, r0
    cfc8:	e51b3634 	ldr	r3, [fp, #-1588]	; 0x634
    cfcc:	e58d3000 	str	r3, [sp]
    cfd0:	e51b3630 	ldr	r3, [fp, #-1584]	; 0x630
    cfd4:	e58d3004 	str	r3, [sp, #4]
    cfd8:	e51b3638 	ldr	r3, [fp, #-1592]	; 0x638
    cfdc:	ebfffcf5 	bl	c3b8 <_init+0x9e4>
    cfe0:	e21a8010 	ands	r8, sl, #16
    cfe4:	0a00001f 	beq	d068 <Cameo_PrintCpuUdfSingleRule+0x398>
    cfe8:	e51b3640 	ldr	r3, [fp, #-1600]	; 0x640
    cfec:	e2133a01 	ands	r3, r3, #4096	; 0x1000
    cff0:	01a08003 	moveq	r8, r3
    cff4:	0a00001b 	beq	d068 <Cameo_PrintCpuUdfSingleRule+0x398>
    cff8:	e24b0e63 	sub	r0, fp, #1584	; 0x630
    cffc:	e3a02010 	mov	r2, #16
    d000:	e3a01000 	mov	r1, #0
    d004:	e240000c 	sub	r0, r0, #12
    d008:	ebfffc6f 	bl	c1cc <_init+0x7f8>
    d00c:	e24b1e63 	sub	r1, fp, #1584	; 0x630
    d010:	e1a00007 	mov	r0, r7
    d014:	e241100c 	sub	r1, r1, #12
    d018:	eb244d87 	bl	92063c <nmhGetIssCpuFilterUdfFilterOffset5>
    d01c:	e3500000 	cmp	r0, #0
    d020:	0a00000f 	beq	d064 <Cameo_PrintCpuUdfSingleRule+0x394>
    d024:	e24b0e52 	sub	r0, fp, #1312	; 0x520
    d028:	e3a08000 	mov	r8, #0
    d02c:	e240000c 	sub	r0, r0, #12
    d030:	ebfffd46 	bl	c550 <_init+0xb7c>
    d034:	e24b3e52 	sub	r3, fp, #1312	; 0x520
    d038:	e59f10dc 	ldr	r1, [pc, #220]	; d11c <Cameo_PrintCpuUdfSingleRule+0x44c>
    d03c:	e243300c 	sub	r3, r3, #12
    d040:	e51b263c 	ldr	r2, [fp, #-1596]	; 0x63c
    d044:	e0830000 	add	r0, r3, r0
    d048:	e51b3634 	ldr	r3, [fp, #-1588]	; 0x634
    d04c:	e58d3000 	str	r3, [sp]
    d050:	e51b3630 	ldr	r3, [fp, #-1584]	; 0x630
    d054:	e58d3004 	str	r3, [sp, #4]
    d058:	e51b3638 	ldr	r3, [fp, #-1592]	; 0x638
    d05c:	ebfffcd5 	bl	c3b8 <_init+0x9e4>
    d060:	ea000000 	b	d068 <Cameo_PrintCpuUdfSingleRule+0x398>
    d064:	e3a08001 	mov	r8, #1
    d068:	e1a00006 	mov	r0, r6
    d06c:	eb23421c 	bl	8dd8e4 <free_octetstring>
    d070:	e3580000 	cmp	r8, #0
    d074:	13a00001 	movne	r0, #1
    d078:	1a00001d 	bne	d0f4 <Cameo_PrintCpuUdfSingleRule+0x424>
    d07c:	e1a00007 	mov	r0, r7
    d080:	e3a01005 	mov	r1, #5
    d084:	eb45b326 	bl	1179d24 <__aeabi_idivmod>
    d088:	e3510000 	cmp	r1, #0
    d08c:	e1a03004 	mov	r3, r4
    d090:	11a02001 	movne	r2, r1
    d094:	03a02005 	moveq	r2, #5
    d098:	e59f1080 	ldr	r1, [pc, #128]	; d120 <Cameo_PrintCpuUdfSingleRule+0x450>
    d09c:	e1a00005 	mov	r0, r5
    d0a0:	eb041f92 	bl	114ef0 <CliPrintf>
    d0a4:	e24b2e42 	sub	r2, fp, #1056	; 0x420
    d0a8:	e59f1074 	ldr	r1, [pc, #116]	; d124 <Cameo_PrintCpuUdfSingleRule+0x454>
    d0ac:	e242200c 	sub	r2, r2, #12
    d0b0:	e1a00005 	mov	r0, r5
    d0b4:	eb041f8d 	bl	114ef0 <CliPrintf>
    d0b8:	e24b2e62 	sub	r2, fp, #1568	; 0x620
    d0bc:	e59f1064 	ldr	r1, [pc, #100]	; d128 <Cameo_PrintCpuUdfSingleRule+0x458>
    d0c0:	e242200c 	sub	r2, r2, #12
    d0c4:	e1a00005 	mov	r0, r5
    d0c8:	eb041f88 	bl	114ef0 <CliPrintf>
    d0cc:	e59f1058 	ldr	r1, [pc, #88]	; d12c <Cameo_PrintCpuUdfSingleRule+0x45c>
    d0d0:	e1a00005 	mov	r0, r5
    d0d4:	eb041f85 	bl	114ef0 <CliPrintf>
    d0d8:	e24b2e52 	sub	r2, fp, #1312	; 0x520
    d0dc:	e1a00005 	mov	r0, r5
    d0e0:	e59f1048 	ldr	r1, [pc, #72]	; d130 <Cameo_PrintCpuUdfSingleRule+0x460>
    d0e4:	e242200c 	sub	r2, r2, #12
    d0e8:	eb041f80 	bl	114ef0 <CliPrintf>
    d0ec:	e1a00008 	mov	r0, r8
    d0f0:	eaffffff 	b	d0f4 <Cameo_PrintCpuUdfSingleRule+0x424>
    d0f4:	e24bd028 	sub	sp, fp, #40	; 0x28
    d0f8:	e89daff0 	ldm	sp, {r4, r5, r6, r7, r8, r9, sl, fp, sp, pc}
    d0fc:	0134d9f4 			; <UNDEFINED> instruction: 0x0134d9f4
    d100:	0134f810 	teqeq	r4, r0, lsl r8
    d104:	0134f800 	teqeq	r4, r0, lsl #16
    d108:	0134f91c 	teqeq	r4, ip, lsl r9
    d10c:	0134f93c 	teqeq	r4, ip, lsr r9
    d110:	0134f95c 	teqeq	r4, ip, asr r9
    d114:	0134f97c 	teqeq	r4, ip, ror r9
    d118:	0134f99c 			; <UNDEFINED> instruction: 0x0134f99c
    d11c:	0134f9bc 			; <UNDEFINED> instruction: 0x0134f9bc
    d120:	0134f8e4 	teqeq	r4, r4, ror #17
    d124:	0134f904 	teqeq	r4, r4, lsl #18
    d128:	01350ae4 	teqeq	r5, r4, ror #21
    d12c:	0134f9dc 			; <UNDEFINED> instruction: 0x0134f9dc
    d130:	0134f910 	teqeq	r4, r0, lsl r9

0000d134 <yy_get_previous_state>:
    d134:	e92d05f0 	push	{r4, r5, r6, r7, r8, sl}
    d138:	e3007116 	movw	r7, #278	; 0x116
    d13c:	e59f1098 	ldr	r1, [pc, #152]	; d1dc <yy_get_previous_state+0xa8>
    d140:	e590302c 	ldr	r3, [r0, #44]	; 0x2c
    d144:	e590a024 	ldr	sl, [r0, #36]	; 0x24
    d148:	e5908050 	ldr	r8, [r0, #80]	; 0x50
    d14c:	ea00001c 	b	d1c4 <yy_get_previous_state+0x90>
    d150:	e4d82001 	ldrb	r2, [r8], #1
    d154:	e3520000 	cmp	r2, #0
    d158:	17d14102 	ldrbne	r4, [r1, r2, lsl #2]
    d15c:	e0812083 	add	r2, r1, r3, lsl #1
    d160:	03a04001 	moveq	r4, #1
    d164:	e2822b01 	add	r2, r2, #1024	; 0x400
    d168:	e1d220f0 	ldrsh	r2, [r2]
    d16c:	e3520000 	cmp	r2, #0
    d170:	15803040 	strne	r3, [r0, #64]	; 0x40
    d174:	1580c044 	strne	ip, [r0, #68]	; 0x44
    d178:	ea000002 	b	d188 <yy_get_previous_state+0x54>
    d17c:	e1dc30f0 	ldrsh	r3, [ip]
    d180:	e1530007 	cmp	r3, r7
    d184:	c5d64870 	ldrbgt	r4, [r6, #2160]	; 0x870
    d188:	e081c083 	add	ip, r1, r3, lsl #1
    d18c:	e0816104 	add	r6, r1, r4, lsl #2
    d190:	e28c2e97 	add	r2, ip, #2416	; 0x970
    d194:	e28cce63 	add	ip, ip, #1584	; 0x630
    d198:	e1d250f8 	ldrsh	r5, [r2, #8]
    d19c:	e0855004 	add	r5, r5, r4
    d1a0:	e0815085 	add	r5, r1, r5, lsl #1
    d1a4:	e2852ebb 	add	r2, r5, #2992	; 0xbb0
    d1a8:	e2822008 	add	r2, r2, #8
    d1ac:	e1d220f0 	ldrsh	r2, [r2]
    d1b0:	e1520003 	cmp	r2, r3
    d1b4:	1afffff0 	bne	d17c <yy_get_previous_state+0x48>
    d1b8:	e2855efb 	add	r5, r5, #4016	; 0xfb0
    d1bc:	e1d530fc 	ldrsh	r3, [r5, #12]
    d1c0:	e285500c 	add	r5, r5, #12
    d1c4:	e15a0008 	cmp	sl, r8
    d1c8:	e1a0c008 	mov	ip, r8
    d1cc:	8affffdf 	bhi	d150 <yy_get_previous_state+0x1c>
    d1d0:	e1a00003 	mov	r0, r3
    d1d4:	e8bd05f0 	pop	{r4, r5, r6, r7, r8, sl}
    d1d8:	e12fff1e 	bx	lr
    d1dc:	014591f8 	strdeq	r9, [r5, #-24]	; 0xffffffe8

0000d1e0 <main>:
    d1e0:	e1a0c00d 	mov	ip, sp
    d1e4:	e59f325c 	ldr	r3, [pc, #604]	; d448 <main+0x268>
    d1e8:	e92dd8f0 	push	{r4, r5, r6, r7, fp, ip, lr, pc}
    d1ec:	e24cb004 	sub	fp, ip, #4
    d1f0:	e24dd010 	sub	sp, sp, #16
    d1f4:	e1a06001 	mov	r6, r1
    d1f8:	e1a07000 	mov	r7, r0
    d1fc:	e5935000 	ldr	r5, [r3]
    d200:	eb22c6d3 	bl	8bed54 <Cm_Single_IMG_board_info_init>
    d204:	eb23c255 	bl	8fdb60 <NvramEarlyInit>
    d208:	e3a02000 	mov	r2, #0
    d20c:	e24b001c 	sub	r0, fp, #28
    d210:	e5202004 	str	r2, [r0, #-4]!
    d214:	eb23c273 	bl	8fdbe8 <nvram_get_serial_buadRate_without_lock>
    d218:	e51b1020 	ldr	r1, [fp, #-32]
    d21c:	e59f0228 	ldr	r0, [pc, #552]	; d44c <main+0x26c>
    d220:	e59f4228 	ldr	r4, [pc, #552]	; d450 <main+0x270>
    d224:	eb231234 	bl	8d1afc <ConsoleInit>
    d228:	e3a01c4b 	mov	r1, #19200	; 0x4b00
    d22c:	e59f0220 	ldr	r0, [pc, #544]	; d454 <main+0x274>
    d230:	eb1f097c 	bl	7cf828 <CON1_Initial>
    d234:	e59f021c 	ldr	r0, [pc, #540]	; d458 <main+0x278>
    d238:	ebfffcf7 	bl	c61c <_init+0xc48>
    d23c:	e1a01006 	mov	r1, r6
    d240:	e1a00007 	mov	r0, r7
    d244:	eb252ac6 	bl	957d64 <CustomStartup>
    d248:	eb252509 	bl	956674 <IssGetPimModeFromNvRam>
    d24c:	e58400bc 	str	r0, [r4, #188]	; 0xbc
    d250:	eb2311e1 	bl	8d19dc <OsixGetTps>
    d254:	e3a02096 	mov	r2, #150	; 0x96
    d258:	e1a03000 	mov	r3, r0
    d25c:	e58420c4 	str	r2, [r4, #196]	; 0xc4
    d260:	e28400c4 	add	r0, r4, #196	; 0xc4
    d264:	e58420c8 	str	r2, [r4, #200]	; 0xc8
    d268:	e3002ce4 	movw	r2, #3300	; 0xce4
    d26c:	e58430c0 	str	r3, [r4, #192]	; 0xc0
    d270:	e58430d4 	str	r3, [r4, #212]	; 0xd4
    d274:	e58430d8 	str	r3, [r4, #216]	; 0xd8
    d278:	e58420cc 	str	r2, [r4, #204]	; 0xcc
    d27c:	e58450d0 	str	r5, [r4, #208]	; 0xd0
    d280:	eb23125e 	bl	8d1c00 <OsixInit>
    d284:	e2503000 	subs	r3, r0, #0
    d288:	1a000027 	bne	d32c <main+0x14c>
    d28c:	e3a02e19 	mov	r2, #400	; 0x190
    d290:	e58430e4 	str	r3, [r4, #228]	; 0xe4
    d294:	e58430e8 	str	r3, [r4, #232]	; 0xe8
    d298:	e28400dc 	add	r0, r4, #220	; 0xdc
    d29c:	e58430ec 	str	r3, [r4, #236]	; 0xec
    d2a0:	e58430f0 	str	r3, [r4, #240]	; 0xf0
    d2a4:	e58430e0 	str	r3, [r4, #224]	; 0xe0
    d2a8:	e58420dc 	str	r2, [r4, #220]	; 0xdc
    d2ac:	eb22fd84 	bl	8cc8c4 <MemInitMemPool>
    d2b0:	e2503000 	subs	r3, r0, #0
    d2b4:	1a000017 	bne	d318 <main+0x138>
    d2b8:	e58430f4 	str	r3, [r4, #244]	; 0xf4
    d2bc:	e3a03e32 	mov	r3, #800	; 0x320
    d2c0:	e58430f8 	str	r3, [r4, #248]	; 0xf8
    d2c4:	e3a03b02 	mov	r3, #2048	; 0x800
    d2c8:	e5843100 	str	r3, [r4, #256]	; 0x100
    d2cc:	e3a03efa 	mov	r3, #4000	; 0xfa0
    d2d0:	e3a05001 	mov	r5, #1
    d2d4:	e28400f4 	add	r0, r4, #244	; 0xf4
    d2d8:	e5843104 	str	r3, [r4, #260]	; 0x104
    d2dc:	e58450fc 	str	r5, [r4, #252]	; 0xfc
    d2e0:	eb22ecce 	bl	8c8620 <BufInitManager>
    d2e4:	e3500000 	cmp	r0, #0
    d2e8:	1a000017 	bne	d34c <main+0x16c>
    d2ec:	e1a00004 	mov	r0, r4
    d2f0:	e3a03064 	mov	r3, #100	; 0x64
    d2f4:	e5a03108 	str	r3, [r0, #264]!	; 0x108
    d2f8:	eb23147b 	bl	8d24ec <TmrTimerInit>
    d2fc:	e3500000 	cmp	r0, #0
    d300:	1a00000d 	bne	d33c <main+0x15c>
    d304:	eb231eac 	bl	8d4dbc <IndexManagerUtilInit>
    d308:	e2506000 	subs	r6, r0, #0
    d30c:	0a000012 	beq	d35c <main+0x17c>
    d310:	e3a00001 	mov	r0, #1
    d314:	ea000002 	b	d324 <main+0x144>
    d318:	e59f013c 	ldr	r0, [pc, #316]	; d45c <main+0x27c>
    d31c:	ebfffcbe 	bl	c61c <_init+0xc48>
    d320:	e3a00001 	mov	r0, #1
    d324:	e24bd01c 	sub	sp, fp, #28
    d328:	e89da8f0 	ldm	sp, {r4, r5, r6, r7, fp, sp, pc}
    d32c:	e59f012c 	ldr	r0, [pc, #300]	; d460 <main+0x280>
    d330:	eb2317cc 	bl	8d3268 <UtlTrcPrint>
    d334:	e3a00001 	mov	r0, #1
    d338:	eafffff9 	b	d324 <main+0x144>
    d33c:	e59f0120 	ldr	r0, [pc, #288]	; d464 <main+0x284>
    d340:	ebfffcb5 	bl	c61c <_init+0xc48>
    d344:	e1a00005 	mov	r0, r5
    d348:	eafffff5 	b	d324 <main+0x144>
    d34c:	e59f0114 	ldr	r0, [pc, #276]	; d468 <main+0x288>
    d350:	ebfffcb1 	bl	c61c <_init+0xc48>
    d354:	e1a00005 	mov	r0, r5
    d358:	eafffff1 	b	d324 <main+0x144>
    d35c:	eb2311a0 	bl	8d19e4 <OsixSetLocalTime>
    d360:	e3a0001d 	mov	r0, #29
    d364:	eb22edce 	bl	8c8aa4 <MemBuddyInit>
    d368:	e3700001 	cmn	r0, #1
    d36c:	0a00002c 	beq	d424 <main+0x244>
    d370:	e28440ac 	add	r4, r4, #172	; 0xac
    d374:	e3a0100f 	mov	r1, #15
    d378:	e58d6000 	str	r6, [sp]
    d37c:	e3401001 	movt	r1, #1
    d380:	e58d4004 	str	r4, [sp, #4]
    d384:	e3022710 	movw	r2, #10000	; 0x2710
    d388:	e59f00dc 	ldr	r0, [pc, #220]	; d46c <main+0x28c>
    d38c:	e59f30dc 	ldr	r3, [pc, #220]	; d470 <main+0x290>
    d390:	eb230bdb 	bl	8d0304 <OsixTskCrt>
    d394:	e3500000 	cmp	r0, #0
    d398:	1a000027 	bne	d43c <main+0x25c>
    d39c:	e59f30d0 	ldr	r3, [pc, #208]	; d474 <main+0x294>
    d3a0:	e3a04000 	mov	r4, #0
    d3a4:	e3a01032 	mov	r1, #50	; 0x32
    d3a8:	e58d4000 	str	r4, [sp]
    d3ac:	e59f00c4 	ldr	r0, [pc, #196]	; d478 <main+0x298>
    d3b0:	e3401001 	movt	r1, #1
    d3b4:	e58d3004 	str	r3, [sp, #4]
    d3b8:	e3a02802 	mov	r2, #131072	; 0x20000
    d3bc:	e59f30b8 	ldr	r3, [pc, #184]	; d47c <main+0x29c>
    d3c0:	eb230bcf 	bl	8d0304 <OsixTskCrt>
    d3c4:	e1500004 	cmp	r0, r4
    d3c8:	059f40b0 	ldreq	r4, [pc, #176]	; d480 <main+0x2a0>
    d3cc:	0a000001 	beq	d3d8 <main+0x1f8>
    d3d0:	ea000017 	b	d434 <main+0x254>
    d3d4:	ebfffb4f 	bl	c118 <_init+0x744>
    d3d8:	e5943000 	ldr	r3, [r4]
    d3dc:	e3a00002 	mov	r0, #2
    d3e0:	e3530000 	cmp	r3, #0
    d3e4:	0afffffa 	beq	d3d4 <main+0x1f4>
    d3e8:	eb25c33c 	bl	97e0e0 <Cameo_CliCmdExecuteTimeInit>
    d3ec:	e3a03000 	mov	r3, #0
    d3f0:	e3a01801 	mov	r1, #65536	; 0x10000
    d3f4:	e58d3000 	str	r3, [sp]
    d3f8:	e3022710 	movw	r2, #10000	; 0x2710
    d3fc:	e59f3080 	ldr	r3, [pc, #128]	; d484 <main+0x2a4>
    d400:	e59f0080 	ldr	r0, [pc, #128]	; d488 <main+0x2a8>
    d404:	e58d3004 	str	r3, [sp, #4]
    d408:	e59f307c 	ldr	r3, [pc, #124]	; d48c <main+0x2ac>
    d40c:	eb230bbc 	bl	8d0304 <OsixTskCrt>
    d410:	e2504000 	subs	r4, r0, #0
    d414:	1affffbd 	bne	d310 <main+0x130>
    d418:	eb230d57 	bl	8d097c <Fsap2Start>
    d41c:	e1a00004 	mov	r0, r4
    d420:	eaffffbf 	b	d324 <main+0x144>
    d424:	e59f0064 	ldr	r0, [pc, #100]	; d490 <main+0x2b0>
    d428:	ebfffc7b 	bl	c61c <_init+0xc48>
    d42c:	e1a00005 	mov	r0, r5
    d430:	eaffffbb 	b	d324 <main+0x144>
    d434:	e1a00004 	mov	r0, r4
    d438:	eaffffb9 	b	d324 <main+0x144>
    d43c:	e59f0050 	ldr	r0, [pc, #80]	; d494 <main+0x2b4>
    d440:	ebfff97e 	bl	ba40 <_init+0x6c>
    d444:	eaffffd4 	b	d39c <main+0x1bc>
    d448:	0202c44c 	andeq	ip, r2, #1275068416	; 0x4c000000
    d44c:	013456d4 			; <UNDEFINED> instruction: 0x013456d4
    d450:	03e5e974 	mvneq	lr, #1900544	; 0x1d0000
    d454:	01316b58 	teqeq	r1, r8, asr fp
    d458:	013456e0 	teqeq	r4, r0, ror #13
    d45c:	01345714 	teqeq	r4, r4, lsl r7
    d460:	013456ec 	teqeq	r4, ip, ror #13
    d464:	0134576c 	teqeq	r4, ip, ror #14
    d468:	01345740 	teqeq	r4, r0, asr #14
    d46c:	013457c4 	teqeq	r4, r4, asr #15
    d470:	008e9894 	umulleq	r9, lr, r4, r8
    d474:	03e5ea80 	mvneq	lr, #524288	; 0x80000
    d478:	013457e8 	teqeq	r4, r8, ror #15
    d47c:	00bb3898 	umlalseq	r3, fp, r8, r8
    d480:	03e9d93c 	mvneq	sp, #983040	; 0xf0000
    d484:	03e5e9b4 	mvneq	lr, #2949120	; 0x2d0000
    d488:	013457f0 			; <UNDEFINED> instruction: 0x013457f0
    d48c:	008e99f8 	strdeq	r9, [lr], r8
    d490:	01345798 			; <UNDEFINED> instruction: 0x01345798
    d494:	013457cc 	teqeq	r4, ip, asr #15

0000d498 <_start>:
    d498:	e3a0b000 	mov	fp, #0
    d49c:	e3a0e000 	mov	lr, #0
    d4a0:	e49d1004 	pop	{r1}		; (ldr r1, [sp], #4)
    d4a4:	e1a0200d 	mov	r2, sp
    d4a8:	e52d2004 	push	{r2}		; (str r2, [sp, #-4]!)
    d4ac:	e52d0004 	push	{r0}		; (str r0, [sp, #-4]!)
    d4b0:	e59fc010 	ldr	ip, [pc, #16]	; d4c8 <_start+0x30>
    d4b4:	e52dc004 	push	{ip}		; (str ip, [sp, #-4]!)
    d4b8:	e59f000c 	ldr	r0, [pc, #12]	; d4cc <_start+0x34>
    d4bc:	e59f300c 	ldr	r3, [pc, #12]	; d4d0 <_start+0x38>
    d4c0:	eafffaf6 	b	c0a0 <_init+0x6cc>
    d4c4:	ebfffad7 	bl	c028 <_init+0x654>
    d4c8:	0117b950 	tsteq	r7, r0, asr r9
    d4cc:	0000d1e0 	andeq	sp, r0, r0, ror #3
    d4d0:	0000b9d4 	ldrdeq	fp, [r0], -r4

0000d4d4 <deregister_tm_clones>:
    d4d4:	e92d4008 	push	{r3, lr}
    d4d8:	e59f0020 	ldr	r0, [pc, #32]	; d500 <deregister_tm_clones+0x2c>
    d4dc:	e59f3020 	ldr	r3, [pc, #32]	; d504 <deregister_tm_clones+0x30>
    d4e0:	e0603003 	rsb	r3, r0, r3
    d4e4:	e3530006 	cmp	r3, #6
    d4e8:	98bd8008 	popls	{r3, pc}
    d4ec:	e59f3014 	ldr	r3, [pc, #20]	; d508 <deregister_tm_clones+0x34>
    d4f0:	e3530000 	cmp	r3, #0
    d4f4:	08bd8008 	popeq	{r3, pc}
    d4f8:	e12fff33 	blx	r3
    d4fc:	e8bd8008 	pop	{r3, pc}
    d500:	02342720 	eorseq	r2, r4, #8388608	; 0x800000
    d504:	02342723 	eorseq	r2, r4, #9175040	; 0x8c0000
    d508:	00000000 	andeq	r0, r0, r0

0000d50c <register_tm_clones>:
    d50c:	e59f002c 	ldr	r0, [pc, #44]	; d540 <register_tm_clones+0x34>
    d510:	e59f102c 	ldr	r1, [pc, #44]	; d544 <register_tm_clones+0x38>
    d514:	e92d4008 	push	{r3, lr}
    d518:	e0601001 	rsb	r1, r0, r1
    d51c:	e1a01141 	asr	r1, r1, #2
    d520:	e0811fa1 	add	r1, r1, r1, lsr #31
    d524:	e1b010c1 	asrs	r1, r1, #1
    d528:	08bd8008 	popeq	{r3, pc}
    d52c:	e59f3014 	ldr	r3, [pc, #20]	; d548 <register_tm_clones+0x3c>
    d530:	e3530000 	cmp	r3, #0
    d534:	08bd8008 	popeq	{r3, pc}
    d538:	e12fff33 	blx	r3
    d53c:	e8bd8008 	pop	{r3, pc}
    d540:	02342720 	eorseq	r2, r4, #8388608	; 0x800000
    d544:	02342720 	eorseq	r2, r4, #8388608	; 0x800000
    d548:	00000000 	andeq	r0, r0, r0

0000d54c <__do_global_dtors_aux>:
    d54c:	e59f3034 	ldr	r3, [pc, #52]	; d588 <__do_global_dtors_aux+0x3c>
    d550:	e92d4010 	push	{r4, lr}
    d554:	e1a04003 	mov	r4, r3
    d558:	e5d32000 	ldrb	r2, [r3]
    d55c:	e3520000 	cmp	r2, #0
    d560:	18bd8010 	popne	{r4, pc}
    d564:	ebffffda 	bl	d4d4 <deregister_tm_clones>
    d568:	e59f301c 	ldr	r3, [pc, #28]	; d58c <__do_global_dtors_aux+0x40>
    d56c:	e3530000 	cmp	r3, #0
    d570:	0a000001 	beq	d57c <__do_global_dtors_aux+0x30>
    d574:	e59f0014 	ldr	r0, [pc, #20]	; d590 <__do_global_dtors_aux+0x44>
    d578:	ebfffb5e 	bl	c2f8 <_init+0x924>
    d57c:	e3a03001 	mov	r3, #1
    d580:	e5c43000 	strb	r3, [r4]
    d584:	e8bd8010 	pop	{r4, pc}
    d588:	02342738 	eorseq	r2, r4, #14680064	; 0xe00000
    d58c:	00000000 	andeq	r0, r0, r0
    d590:	0183d6cc 	orreq	sp, r3, ip, asr #13

0000d594 <frame_dummy>:
    d594:	e92d4008 	push	{r3, lr}
    d598:	e59f3038 	ldr	r3, [pc, #56]	; d5d8 <frame_dummy+0x44>
    d59c:	e3530000 	cmp	r3, #0
    d5a0:	0a000002 	beq	d5b0 <frame_dummy+0x1c>
    d5a4:	e59f0030 	ldr	r0, [pc, #48]	; d5dc <frame_dummy+0x48>
    d5a8:	e59f1030 	ldr	r1, [pc, #48]	; d5e0 <frame_dummy+0x4c>
    d5ac:	ebfffa16 	bl	be0c <_init+0x438>
    d5b0:	e59f002c 	ldr	r0, [pc, #44]	; d5e4 <frame_dummy+0x50>
    d5b4:	e5903000 	ldr	r3, [r0]
    d5b8:	e3530000 	cmp	r3, #0
    d5bc:	0a000003 	beq	d5d0 <frame_dummy+0x3c>
    d5c0:	e59f3020 	ldr	r3, [pc, #32]	; d5e8 <frame_dummy+0x54>
    d5c4:	e3530000 	cmp	r3, #0
    d5c8:	0a000000 	beq	d5d0 <frame_dummy+0x3c>
    d5cc:	e12fff33 	blx	r3
    d5d0:	e8bd4008 	pop	{r3, lr}
    d5d4:	eaffffcc 	b	d50c <register_tm_clones>
    d5d8:	00000000 	andeq	r0, r0, r0
    d5dc:	0183d6cc 	orreq	sp, r3, ip, asr #13
    d5e0:	0234273c 	eorseq	r2, r4, #15728640	; 0xf00000
    d5e4:	018456d8 	ldrdeq	r5, [r4, r8]
    d5e8:	00000000 	andeq	r0, r0, r0

0000d5ec <LldpMainMemInit>:
    d5ec:	e1a0c00d 	mov	ip, sp
    d5f0:	e3a00fd6 	mov	r0, #856	; 0x358
    d5f4:	e92dd818 	push	{r3, r4, fp, ip, lr, pc}
    d5f8:	e3a0101c 	mov	r1, #28
    d5fc:	e59f4314 	ldr	r4, [pc, #788]	; d918 <LldpMainMemInit+0x32c>
    d600:	e24cb004 	sub	fp, ip, #4
    d604:	e3a02000 	mov	r2, #0
    d608:	e284305c 	add	r3, r4, #92	; 0x5c
    d60c:	eb22fd1d 	bl	8cca88 <MemCreateMemPool>
    d610:	e3700001 	cmn	r0, #1
    d614:	0a000064 	beq	d7ac <LldpMainMemInit+0x1c0>
    d618:	e3a00e25 	mov	r0, #592	; 0x250
    d61c:	e3a01018 	mov	r1, #24
    d620:	e3a02001 	mov	r2, #1
    d624:	e2843060 	add	r3, r4, #96	; 0x60
    d628:	eb22fd16 	bl	8cca88 <MemCreateMemPool>
    d62c:	e3700001 	cmn	r0, #1
    d630:	0a000064 	beq	d7c8 <LldpMainMemInit+0x1dc>
    d634:	e3a00eae 	mov	r0, #2784	; 0xae0
    d638:	e3a01032 	mov	r1, #50	; 0x32
    d63c:	e3a02001 	mov	r2, #1
    d640:	e2843064 	add	r3, r4, #100	; 0x64
    d644:	eb22fd0f 	bl	8cca88 <MemCreateMemPool>
    d648:	e3700001 	cmn	r0, #1
    d64c:	0a000064 	beq	d7e4 <LldpMainMemInit+0x1f8>
    d650:	e3a00f93 	mov	r0, #588	; 0x24c
    d654:	e3a01032 	mov	r1, #50	; 0x32
    d658:	e3a02001 	mov	r2, #1
    d65c:	e2843068 	add	r3, r4, #104	; 0x68
    d660:	eb22fd08 	bl	8cca88 <MemCreateMemPool>
    d664:	e3700001 	cmn	r0, #1
    d668:	0a000048 	beq	d790 <LldpMainMemInit+0x1a4>
    d66c:	e3a00f89 	mov	r0, #548	; 0x224
    d670:	e3a0100a 	mov	r1, #10
    d674:	e3a02001 	mov	r2, #1
    d678:	e284306c 	add	r3, r4, #108	; 0x6c
    d67c:	eb22fd01 	bl	8cca88 <MemCreateMemPool>
    d680:	e3700001 	cmn	r0, #1
    d684:	0a00005d 	beq	d800 <LldpMainMemInit+0x214>
    d688:	e3a00f8b 	mov	r0, #556	; 0x22c
    d68c:	e3a0100a 	mov	r1, #10
    d690:	e3a02001 	mov	r2, #1
    d694:	e2843070 	add	r3, r4, #112	; 0x70
    d698:	eb22fcfa 	bl	8cca88 <MemCreateMemPool>
    d69c:	e3700001 	cmn	r0, #1
    d6a0:	0a00005d 	beq	d81c <LldpMainMemInit+0x230>
    d6a4:	e3a00f47 	mov	r0, #284	; 0x11c
    d6a8:	e3a01070 	mov	r1, #112	; 0x70
    d6ac:	e3a02000 	mov	r2, #0
    d6b0:	e2843074 	add	r3, r4, #116	; 0x74
    d6b4:	eb22fcf3 	bl	8cca88 <MemCreateMemPool>
    d6b8:	e3700001 	cmn	r0, #1
    d6bc:	0a00005d 	beq	d838 <LldpMainMemInit+0x24c>
    d6c0:	e3a0000c 	mov	r0, #12
    d6c4:	e3a01032 	mov	r1, #50	; 0x32
    d6c8:	e3a02001 	mov	r2, #1
    d6cc:	e2843078 	add	r3, r4, #120	; 0x78
    d6d0:	eb22fcec 	bl	8cca88 <MemCreateMemPool>
    d6d4:	e3700001 	cmn	r0, #1
    d6d8:	0a00005d 	beq	d854 <LldpMainMemInit+0x268>
    d6dc:	e3a00040 	mov	r0, #64	; 0x40
    d6e0:	e3a01032 	mov	r1, #50	; 0x32
    d6e4:	e3a02001 	mov	r2, #1
    d6e8:	e284307c 	add	r3, r4, #124	; 0x7c
    d6ec:	eb22fce5 	bl	8cca88 <MemCreateMemPool>
    d6f0:	e3700001 	cmn	r0, #1
    d6f4:	0a000064 	beq	d88c <LldpMainMemInit+0x2a0>
    d6f8:	e3a00020 	mov	r0, #32
    d6fc:	e3a01032 	mov	r1, #50	; 0x32
    d700:	e3a02001 	mov	r2, #1
    d704:	e2843080 	add	r3, r4, #128	; 0x80
    d708:	eb22fcde 	bl	8cca88 <MemCreateMemPool>
    d70c:	e3700001 	cmn	r0, #1
    d710:	0a000064 	beq	d8a8 <LldpMainMemInit+0x2bc>
    d714:	e59f41fc 	ldr	r4, [pc, #508]	; d918 <LldpMainMemInit+0x32c>
    d718:	e3a00f49 	mov	r0, #292	; 0x124
    d71c:	e3a01032 	mov	r1, #50	; 0x32
    d720:	e3a02000 	mov	r2, #0
    d724:	e2843084 	add	r3, r4, #132	; 0x84
    d728:	eb22fcd6 	bl	8cca88 <MemCreateMemPool>
    d72c:	e3700001 	cmn	r0, #1
    d730:	0a000063 	beq	d8c4 <LldpMainMemInit+0x2d8>
    d734:	e3a00020 	mov	r0, #32
    d738:	e3a01032 	mov	r1, #50	; 0x32
    d73c:	e3a02001 	mov	r2, #1
    d740:	e2843088 	add	r3, r4, #136	; 0x88
    d744:	eb22fccf 	bl	8cca88 <MemCreateMemPool>
    d748:	e3700001 	cmn	r0, #1
    d74c:	0a000063 	beq	d8e0 <LldpMainMemInit+0x2f4>
    d750:	e3a00020 	mov	r0, #32
    d754:	e3a010e0 	mov	r1, #224	; 0xe0
    d758:	e3a02001 	mov	r2, #1
    d75c:	e2843094 	add	r3, r4, #148	; 0x94
    d760:	eb22fcc8 	bl	8cca88 <MemCreateMemPool>
    d764:	e3700001 	cmn	r0, #1
    d768:	0a000063 	beq	d8fc <LldpMainMemInit+0x310>
    d76c:	e3a00028 	mov	r0, #40	; 0x28
    d770:	e3a01e19 	mov	r1, #400	; 0x190
    d774:	e3a02001 	mov	r2, #1
    d778:	e2843098 	add	r3, r4, #152	; 0x98
    d77c:	eb22fcc1 	bl	8cca88 <MemCreateMemPool>
    d780:	e3700001 	cmn	r0, #1
    d784:	0a000039 	beq	d870 <LldpMainMemInit+0x284>
    d788:	e3a00000 	mov	r0, #0
    d78c:	e89da818 	ldm	sp, {r3, r4, fp, sp, pc}
    d790:	e5940a10 	ldr	r0, [r4, #2576]	; 0xa10
    d794:	e3a01020 	mov	r1, #32
    d798:	e59f217c 	ldr	r2, [pc, #380]	; d91c <LldpMainMemInit+0x330>
    d79c:	e59f317c 	ldr	r3, [pc, #380]	; d920 <LldpMainMemInit+0x334>
    d7a0:	eb231784 	bl	8d35b8 <UtlTrcLog>
    d7a4:	e3a00001 	mov	r0, #1
    d7a8:	e89da818 	ldm	sp, {r3, r4, fp, sp, pc}
    d7ac:	e5940a10 	ldr	r0, [r4, #2576]	; 0xa10
    d7b0:	e3a01020 	mov	r1, #32
    d7b4:	e59f2160 	ldr	r2, [pc, #352]	; d91c <LldpMainMemInit+0x330>
    d7b8:	e59f3164 	ldr	r3, [pc, #356]	; d924 <LldpMainMemInit+0x338>
    d7bc:	eb23177d 	bl	8d35b8 <UtlTrcLog>
    d7c0:	e3a00001 	mov	r0, #1
    d7c4:	e89da818 	ldm	sp, {r3, r4, fp, sp, pc}
    d7c8:	e5940a10 	ldr	r0, [r4, #2576]	; 0xa10
    d7cc:	e3a01020 	mov	r1, #32
    d7d0:	e59f2144 	ldr	r2, [pc, #324]	; d91c <LldpMainMemInit+0x330>
    d7d4:	e59f314c 	ldr	r3, [pc, #332]	; d928 <LldpMainMemInit+0x33c>
    d7d8:	eb231776 	bl	8d35b8 <UtlTrcLog>
    d7dc:	e3a00001 	mov	r0, #1
    d7e0:	e89da818 	ldm	sp, {r3, r4, fp, sp, pc}
    d7e4:	e5940a10 	ldr	r0, [r4, #2576]	; 0xa10
    d7e8:	e3a01020 	mov	r1, #32
    d7ec:	e59f2128 	ldr	r2, [pc, #296]	; d91c <LldpMainMemInit+0x330>
    d7f0:	e59f3134 	ldr	r3, [pc, #308]	; d92c <LldpMainMemInit+0x340>
    d7f4:	eb23176f 	bl	8d35b8 <UtlTrcLog>
    d7f8:	e3a00001 	mov	r0, #1
    d7fc:	e89da818 	ldm	sp, {r3, r4, fp, sp, pc}
    d800:	e5940a10 	ldr	r0, [r4, #2576]	; 0xa10
    d804:	e3a01020 	mov	r1, #32
    d808:	e59f210c 	ldr	r2, [pc, #268]	; d91c <LldpMainMemInit+0x330>
    d80c:	e59f311c 	ldr	r3, [pc, #284]	; d930 <LldpMainMemInit+0x344>
    d810:	eb231768 	bl	8d35b8 <UtlTrcLog>
    d814:	e3a00001 	mov	r0, #1
    d818:	e89da818 	ldm	sp, {r3, r4, fp, sp, pc}
    d81c:	e5940a10 	ldr	r0, [r4, #2576]	; 0xa10
    d820:	e3a01020 	mov	r1, #32
    d824:	e59f20f0 	ldr	r2, [pc, #240]	; d91c <LldpMainMemInit+0x330>
    d828:	e59f3104 	ldr	r3, [pc, #260]	; d934 <LldpMainMemInit+0x348>
    d82c:	eb231761 	bl	8d35b8 <UtlTrcLog>
    d830:	e3a00001 	mov	r0, #1
    d834:	e89da818 	ldm	sp, {r3, r4, fp, sp, pc}
    d838:	e5940a10 	ldr	r0, [r4, #2576]	; 0xa10
    d83c:	e3a01020 	mov	r1, #32
    d840:	e59f20d4 	ldr	r2, [pc, #212]	; d91c <LldpMainMemInit+0x330>
    d844:	e59f30ec 	ldr	r3, [pc, #236]	; d938 <LldpMainMemInit+0x34c>
    d848:	eb23175a 	bl	8d35b8 <UtlTrcLog>
    d84c:	e3a00001 	mov	r0, #1
    d850:	e89da818 	ldm	sp, {r3, r4, fp, sp, pc}
    d854:	e5940a10 	ldr	r0, [r4, #2576]	; 0xa10
    d858:	e3a01020 	mov	r1, #32
    d85c:	e59f20b8 	ldr	r2, [pc, #184]	; d91c <LldpMainMemInit+0x330>
    d860:	e59f30d4 	ldr	r3, [pc, #212]	; d93c <LldpMainMemInit+0x350>
    d864:	eb231753 	bl	8d35b8 <UtlTrcLog>
    d868:	e3a00001 	mov	r0, #1
    d86c:	e89da818 	ldm	sp, {r3, r4, fp, sp, pc}
    d870:	e5940a10 	ldr	r0, [r4, #2576]	; 0xa10
    d874:	e3a01020 	mov	r1, #32
    d878:	e59f209c 	ldr	r2, [pc, #156]	; d91c <LldpMainMemInit+0x330>
    d87c:	e59f30bc 	ldr	r3, [pc, #188]	; d940 <LldpMainMemInit+0x354>
    d880:	eb23174c 	bl	8d35b8 <UtlTrcLog>
    d884:	e3a00001 	mov	r0, #1
    d888:	e89da818 	ldm	sp, {r3, r4, fp, sp, pc}
    d88c:	e5940a10 	ldr	r0, [r4, #2576]	; 0xa10
    d890:	e3a01020 	mov	r1, #32
    d894:	e59f2080 	ldr	r2, [pc, #128]	; d91c <LldpMainMemInit+0x330>
    d898:	e59f30a4 	ldr	r3, [pc, #164]	; d944 <LldpMainMemInit+0x358>
    d89c:	eb231745 	bl	8d35b8 <UtlTrcLog>
    d8a0:	e3a00001 	mov	r0, #1
    d8a4:	e89da818 	ldm	sp, {r3, r4, fp, sp, pc}
    d8a8:	e5940a10 	ldr	r0, [r4, #2576]	; 0xa10
    d8ac:	e3a01020 	mov	r1, #32
    d8b0:	e59f2064 	ldr	r2, [pc, #100]	; d91c <LldpMainMemInit+0x330>
    d8b4:	e59f308c 	ldr	r3, [pc, #140]	; d948 <LldpMainMemInit+0x35c>
    d8b8:	eb23173e 	bl	8d35b8 <UtlTrcLog>
    d8bc:	e3a00001 	mov	r0, #1
    d8c0:	e89da818 	ldm	sp, {r3, r4, fp, sp, pc}
    d8c4:	e5940a10 	ldr	r0, [r4, #2576]	; 0xa10
    d8c8:	e3a01020 	mov	r1, #32
    d8cc:	e59f2048 	ldr	r2, [pc, #72]	; d91c <LldpMainMemInit+0x330>
    d8d0:	e59f3074 	ldr	r3, [pc, #116]	; d94c <LldpMainMemInit+0x360>
    d8d4:	eb231737 	bl	8d35b8 <UtlTrcLog>
    d8d8:	e3a00001 	mov	r0, #1
    d8dc:	e89da818 	ldm	sp, {r3, r4, fp, sp, pc}
    d8e0:	e5940a10 	ldr	r0, [r4, #2576]	; 0xa10
    d8e4:	e3a01020 	mov	r1, #32
    d8e8:	e59f202c 	ldr	r2, [pc, #44]	; d91c <LldpMainMemInit+0x330>
    d8ec:	e59f305c 	ldr	r3, [pc, #92]	; d950 <LldpMainMemInit+0x364>
    d8f0:	eb231730 	bl	8d35b8 <UtlTrcLog>
    d8f4:	e3a00001 	mov	r0, #1
    d8f8:	e89da818 	ldm	sp, {r3, r4, fp, sp, pc}
    d8fc:	e5940a10 	ldr	r0, [r4, #2576]	; 0xa10
    d900:	e3a01020 	mov	r1, #32
    d904:	e59f2010 	ldr	r2, [pc, #16]	; d91c <LldpMainMemInit+0x330>
    d908:	e59f3044 	ldr	r3, [pc, #68]	; d954 <LldpMainMemInit+0x368>
    d90c:	eb231729 	bl	8d35b8 <UtlTrcLog>
    d910:	e3a00001 	mov	r0, #1
    d914:	e89da818 	ldm	sp, {r3, r4, fp, sp, pc}
    d918:	02342754 	eorseq	r2, r4, #22020096	; 0x1500000
    d91c:	0117bfdc 			; <UNDEFINED> instruction: 0x0117bfdc
    d920:	0117c0a0 	tsteq	r7, r0, lsr #1
    d924:	0117bfe4 	tsteq	r7, r4, ror #31
    d928:	0117c024 	tsteq	r7, r4, lsr #32
    d92c:	0117c064 	tsteq	r7, r4, rrx
    d930:	0117c0e0 	tsteq	r7, r0, ror #1
    d934:	0117c124 	tsteq	r7, r4, lsr #2
    d938:	0117c168 	tsteq	r7, r8, ror #2
    d93c:	0117c1ac 	tsteq	r7, ip, lsr #3
    d940:	0117c348 	tsteq	r7, r8, asr #6
    d944:	0117c1f4 			; <UNDEFINED> instruction: 0x0117c1f4
    d948:	0117c238 	tsteq	r7, r8, lsr r2
    d94c:	0117c27c 	tsteq	r7, ip, ror r2
    d950:	0117c2bc 			; <UNDEFINED> instruction: 0x0117c2bc
    d954:	0117c300 	tsteq	r7, r0, lsl #6

0000d958 <LldpMainMemClear>:
    d958:	e1a0c00d 	mov	ip, sp
    d95c:	e92dd830 	push	{r4, r5, fp, ip, lr, pc}
    d960:	e24cb004 	sub	fp, ip, #4
    d964:	e59f438c 	ldr	r4, [pc, #908]	; dcf8 <LldpMainMemClear+0x3a0>
    d968:	e5940060 	ldr	r0, [r4, #96]	; 0x60
    d96c:	e5d45058 	ldrb	r5, [r4, #88]	; 0x58
    d970:	e3500000 	cmp	r0, #0
    d974:	1a000078 	bne	db5c <LldpMainMemClear+0x204>
    d978:	e5940064 	ldr	r0, [r4, #100]	; 0x64
    d97c:	e3500000 	cmp	r0, #0
    d980:	1a00006f 	bne	db44 <LldpMainMemClear+0x1ec>
    d984:	e5940068 	ldr	r0, [r4, #104]	; 0x68
    d988:	e3500000 	cmp	r0, #0
    d98c:	1a000066 	bne	db2c <LldpMainMemClear+0x1d4>
    d990:	e594006c 	ldr	r0, [r4, #108]	; 0x6c
    d994:	e3500000 	cmp	r0, #0
    d998:	1a00005d 	bne	db14 <LldpMainMemClear+0x1bc>
    d99c:	e5940070 	ldr	r0, [r4, #112]	; 0x70
    d9a0:	e3500000 	cmp	r0, #0
    d9a4:	1a000054 	bne	dafc <LldpMainMemClear+0x1a4>
    d9a8:	e5940074 	ldr	r0, [r4, #116]	; 0x74
    d9ac:	e3500000 	cmp	r0, #0
    d9b0:	1a00004b 	bne	dae4 <LldpMainMemClear+0x18c>
    d9b4:	e5940078 	ldr	r0, [r4, #120]	; 0x78
    d9b8:	e3500000 	cmp	r0, #0
    d9bc:	1a000042 	bne	dacc <LldpMainMemClear+0x174>
    d9c0:	e594007c 	ldr	r0, [r4, #124]	; 0x7c
    d9c4:	e3500000 	cmp	r0, #0
    d9c8:	1a000039 	bne	dab4 <LldpMainMemClear+0x15c>
    d9cc:	e5940080 	ldr	r0, [r4, #128]	; 0x80
    d9d0:	e3500000 	cmp	r0, #0
    d9d4:	1a000030 	bne	da9c <LldpMainMemClear+0x144>
    d9d8:	e5940084 	ldr	r0, [r4, #132]	; 0x84
    d9dc:	e3500000 	cmp	r0, #0
    d9e0:	1a000027 	bne	da84 <LldpMainMemClear+0x12c>
    d9e4:	e5940088 	ldr	r0, [r4, #136]	; 0x88
    d9e8:	e3500000 	cmp	r0, #0
    d9ec:	1a00001e 	bne	da6c <LldpMainMemClear+0x114>
    d9f0:	e5940094 	ldr	r0, [r4, #148]	; 0x94
    d9f4:	e3500000 	cmp	r0, #0
    d9f8:	1a000015 	bne	da54 <LldpMainMemClear+0xfc>
    d9fc:	e5940098 	ldr	r0, [r4, #152]	; 0x98
    da00:	e3500000 	cmp	r0, #0
    da04:	1a00000a 	bne	da34 <LldpMainMemClear+0xdc>
    da08:	e3550002 	cmp	r5, #2
    da0c:	189da830 	ldmne	sp, {r4, r5, fp, sp, pc}
    da10:	e594005c 	ldr	r0, [r4, #92]	; 0x5c
    da14:	e3500000 	cmp	r0, #0
    da18:	089da830 	ldmeq	sp, {r4, r5, fp, sp, pc}
    da1c:	eb22fcc8 	bl	8ccd44 <MemDeleteMemPool>
    da20:	e3700001 	cmn	r0, #1
    da24:	0a0000ac 	beq	dcdc <LldpMainMemClear+0x384>
    da28:	e3a03000 	mov	r3, #0
    da2c:	e584305c 	str	r3, [r4, #92]	; 0x5c
    da30:	e89da830 	ldm	sp, {r4, r5, fp, sp, pc}
    da34:	eb22fcc2 	bl	8ccd44 <MemDeleteMemPool>
    da38:	e3700001 	cmn	r0, #1
    da3c:	0a000052 	beq	db8c <LldpMainMemClear+0x234>
    da40:	e3a03000 	mov	r3, #0
    da44:	e3550002 	cmp	r5, #2
    da48:	e5843098 	str	r3, [r4, #152]	; 0x98
    da4c:	189da830 	ldmne	sp, {r4, r5, fp, sp, pc}
    da50:	eaffffee 	b	da10 <LldpMainMemClear+0xb8>
    da54:	eb22fcba 	bl	8ccd44 <MemDeleteMemPool>
    da58:	e3700001 	cmn	r0, #1
    da5c:	0a000051 	beq	dba8 <LldpMainMemClear+0x250>
    da60:	e3a03000 	mov	r3, #0
    da64:	e5843094 	str	r3, [r4, #148]	; 0x94
    da68:	eaffffe3 	b	d9fc <LldpMainMemClear+0xa4>
    da6c:	eb22fcb4 	bl	8ccd44 <MemDeleteMemPool>
    da70:	e3700001 	cmn	r0, #1
    da74:	0a000052 	beq	dbc4 <LldpMainMemClear+0x26c>
    da78:	e3a03000 	mov	r3, #0
    da7c:	e5843088 	str	r3, [r4, #136]	; 0x88
    da80:	eaffffda 	b	d9f0 <LldpMainMemClear+0x98>
    da84:	eb22fcae 	bl	8ccd44 <MemDeleteMemPool>
    da88:	e3700001 	cmn	r0, #1
    da8c:	0a000053 	beq	dbe0 <LldpMainMemClear+0x288>
    da90:	e3a03000 	mov	r3, #0
    da94:	e5843084 	str	r3, [r4, #132]	; 0x84
    da98:	eaffffd1 	b	d9e4 <LldpMainMemClear+0x8c>
    da9c:	eb22fca8 	bl	8ccd44 <MemDeleteMemPool>
    daa0:	e3700001 	cmn	r0, #1
    daa4:	0a000054 	beq	dbfc <LldpMainMemClear+0x2a4>
    daa8:	e3a03000 	mov	r3, #0
    daac:	e5843080 	str	r3, [r4, #128]	; 0x80
    dab0:	eaffffc8 	b	d9d8 <LldpMainMemClear+0x80>
    dab4:	eb22fca2 	bl	8ccd44 <MemDeleteMemPool>
    dab8:	e3700001 	cmn	r0, #1
    dabc:	0a000055 	beq	dc18 <LldpMainMemClear+0x2c0>
    dac0:	e3a03000 	mov	r3, #0
    dac4:	e584307c 	str	r3, [r4, #124]	; 0x7c
    dac8:	eaffffbf 	b	d9cc <LldpMainMemClear+0x74>
    dacc:	eb22fc9c 	bl	8ccd44 <MemDeleteMemPool>
    dad0:	e3700001 	cmn	r0, #1
    dad4:	0a000056 	beq	dc34 <LldpMainMemClear+0x2dc>
    dad8:	e3a03000 	mov	r3, #0
    dadc:	e5843078 	str	r3, [r4, #120]	; 0x78
    dae0:	eaffffb6 	b	d9c0 <LldpMainMemClear+0x68>
    dae4:	eb22fc96 	bl	8ccd44 <MemDeleteMemPool>
    dae8:	e3700001 	cmn	r0, #1
    daec:	0a000057 	beq	dc50 <LldpMainMemClear+0x2f8>
    daf0:	e3a03000 	mov	r3, #0
    daf4:	e5843074 	str	r3, [r4, #116]	; 0x74
    daf8:	eaffffad 	b	d9b4 <LldpMainMemClear+0x5c>
    dafc:	eb22fc90 	bl	8ccd44 <MemDeleteMemPool>
    db00:	e3700001 	cmn	r0, #1
    db04:	0a000058 	beq	dc6c <LldpMainMemClear+0x314>
    db08:	e3a03000 	mov	r3, #0
    db0c:	e5843070 	str	r3, [r4, #112]	; 0x70
    db10:	eaffffa4 	b	d9a8 <LldpMainMemClear+0x50>
    db14:	eb22fc8a 	bl	8ccd44 <MemDeleteMemPool>
    db18:	e3700001 	cmn	r0, #1
    db1c:	0a000059 	beq	dc88 <LldpMainMemClear+0x330>
    db20:	e3a03000 	mov	r3, #0
    db24:	e584306c 	str	r3, [r4, #108]	; 0x6c
    db28:	eaffff9b 	b	d99c <LldpMainMemClear+0x44>
    db2c:	eb22fc84 	bl	8ccd44 <MemDeleteMemPool>
    db30:	e3700001 	cmn	r0, #1
    db34:	0a00005a 	beq	dca4 <LldpMainMemClear+0x34c>
    db38:	e3a03000 	mov	r3, #0
    db3c:	e5843068 	str	r3, [r4, #104]	; 0x68
    db40:	eaffff92 	b	d990 <LldpMainMemClear+0x38>
    db44:	eb22fc7e 	bl	8ccd44 <MemDeleteMemPool>
    db48:	e3700001 	cmn	r0, #1
    db4c:	0a00005b 	beq	dcc0 <LldpMainMemClear+0x368>
    db50:	e3a03000 	mov	r3, #0
    db54:	e5843064 	str	r3, [r4, #100]	; 0x64
    db58:	eaffff89 	b	d984 <LldpMainMemClear+0x2c>
    db5c:	eb22fc78 	bl	8ccd44 <MemDeleteMemPool>
    db60:	e3700001 	cmn	r0, #1
    db64:	0a000002 	beq	db74 <LldpMainMemClear+0x21c>
    db68:	e3a03000 	mov	r3, #0
    db6c:	e5843060 	str	r3, [r4, #96]	; 0x60
    db70:	eaffff80 	b	d978 <LldpMainMemClear+0x20>
    db74:	e5940a10 	ldr	r0, [r4, #2576]	; 0xa10
    db78:	e3a01020 	mov	r1, #32
    db7c:	e59f2178 	ldr	r2, [pc, #376]	; dcfc <LldpMainMemClear+0x3a4>
    db80:	e59f3178 	ldr	r3, [pc, #376]	; dd00 <LldpMainMemClear+0x3a8>
    db84:	eb23168b 	bl	8d35b8 <UtlTrcLog>
    db88:	eafffff6 	b	db68 <LldpMainMemClear+0x210>
    db8c:	e59f3164 	ldr	r3, [pc, #356]	; dcf8 <LldpMainMemClear+0x3a0>
    db90:	e3a01020 	mov	r1, #32
    db94:	e59f2160 	ldr	r2, [pc, #352]	; dcfc <LldpMainMemClear+0x3a4>
    db98:	e5930a10 	ldr	r0, [r3, #2576]	; 0xa10
    db9c:	e59f3160 	ldr	r3, [pc, #352]	; dd04 <LldpMainMemClear+0x3ac>
    dba0:	eb231684 	bl	8d35b8 <UtlTrcLog>
    dba4:	eaffffa5 	b	da40 <LldpMainMemClear+0xe8>
    dba8:	e59f3148 	ldr	r3, [pc, #328]	; dcf8 <LldpMainMemClear+0x3a0>
    dbac:	e3a01020 	mov	r1, #32
    dbb0:	e59f2144 	ldr	r2, [pc, #324]	; dcfc <LldpMainMemClear+0x3a4>
    dbb4:	e5930a10 	ldr	r0, [r3, #2576]	; 0xa10
    dbb8:	e59f3148 	ldr	r3, [pc, #328]	; dd08 <LldpMainMemClear+0x3b0>
    dbbc:	eb23167d 	bl	8d35b8 <UtlTrcLog>
    dbc0:	eaffffa6 	b	da60 <LldpMainMemClear+0x108>
    dbc4:	e59f312c 	ldr	r3, [pc, #300]	; dcf8 <LldpMainMemClear+0x3a0>
    dbc8:	e3a01020 	mov	r1, #32
    dbcc:	e59f2128 	ldr	r2, [pc, #296]	; dcfc <LldpMainMemClear+0x3a4>
    dbd0:	e5930a10 	ldr	r0, [r3, #2576]	; 0xa10
    dbd4:	e59f3130 	ldr	r3, [pc, #304]	; dd0c <LldpMainMemClear+0x3b4>
    dbd8:	eb231676 	bl	8d35b8 <UtlTrcLog>
    dbdc:	eaffffa5 	b	da78 <LldpMainMemClear+0x120>
    dbe0:	e59f3110 	ldr	r3, [pc, #272]	; dcf8 <LldpMainMemClear+0x3a0>
    dbe4:	e3a01020 	mov	r1, #32
    dbe8:	e59f210c 	ldr	r2, [pc, #268]	; dcfc <LldpMainMemClear+0x3a4>
    dbec:	e5930a10 	ldr	r0, [r3, #2576]	; 0xa10
    dbf0:	e59f3118 	ldr	r3, [pc, #280]	; dd10 <LldpMainMemClear+0x3b8>
    dbf4:	eb23166f 	bl	8d35b8 <UtlTrcLog>
    dbf8:	eaffffa4 	b	da90 <LldpMainMemClear+0x138>
    dbfc:	e59f30f4 	ldr	r3, [pc, #244]	; dcf8 <LldpMainMemClear+0x3a0>
    dc00:	e3a01020 	mov	r1, #32
    dc04:	e59f20f0 	ldr	r2, [pc, #240]	; dcfc <LldpMainMemClear+0x3a4>
    dc08:	e5930a10 	ldr	r0, [r3, #2576]	; 0xa10
    dc0c:	e59f3100 	ldr	r3, [pc, #256]	; dd14 <LldpMainMemClear+0x3bc>
    dc10:	eb231668 	bl	8d35b8 <UtlTrcLog>
    dc14:	eaffffa3 	b	daa8 <LldpMainMemClear+0x150>
    dc18:	e59f30d8 	ldr	r3, [pc, #216]	; dcf8 <LldpMainMemClear+0x3a0>
    dc1c:	e3a01020 	mov	r1, #32
    dc20:	e59f20d4 	ldr	r2, [pc, #212]	; dcfc <LldpMainMemClear+0x3a4>
    dc24:	e5930a10 	ldr	r0, [r3, #2576]	; 0xa10
    dc28:	e59f30e8 	ldr	r3, [pc, #232]	; dd18 <LldpMainMemClear+0x3c0>
    dc2c:	eb231661 	bl	8d35b8 <UtlTrcLog>
    dc30:	eaffffa2 	b	dac0 <LldpMainMemClear+0x168>
    dc34:	e59f30bc 	ldr	r3, [pc, #188]	; dcf8 <LldpMainMemClear+0x3a0>
    dc38:	e3a01020 	mov	r1, #32
    dc3c:	e59f20b8 	ldr	r2, [pc, #184]	; dcfc <LldpMainMemClear+0x3a4>
    dc40:	e5930a10 	ldr	r0, [r3, #2576]	; 0xa10
    dc44:	e59f30d0 	ldr	r3, [pc, #208]	; dd1c <LldpMainMemClear+0x3c4>
    dc48:	eb23165a 	bl	8d35b8 <UtlTrcLog>
    dc4c:	eaffffa1 	b	dad8 <LldpMainMemClear+0x180>
    dc50:	e59f30a0 	ldr	r3, [pc, #160]	; dcf8 <LldpMainMemClear+0x3a0>
    dc54:	e3a01020 	mov	r1, #32
    dc58:	e59f209c 	ldr	r2, [pc, #156]	; dcfc <LldpMainMemClear+0x3a4>
    dc5c:	e5930a10 	ldr	r0, [r3, #2576]	; 0xa10
    dc60:	e59f30b8 	ldr	r3, [pc, #184]	; dd20 <LldpMainMemClear+0x3c8>
    dc64:	eb231653 	bl	8d35b8 <UtlTrcLog>
    dc68:	eaffffa0 	b	daf0 <LldpMainMemClear+0x198>
    dc6c:	e59f3084 	ldr	r3, [pc, #132]	; dcf8 <LldpMainMemClear+0x3a0>
    dc70:	e3a01020 	mov	r1, #32
    dc74:	e59f2080 	ldr	r2, [pc, #128]	; dcfc <LldpMainMemClear+0x3a4>
    dc78:	e5930a10 	ldr	r0, [r3, #2576]	; 0xa10
    dc7c:	e59f30a0 	ldr	r3, [pc, #160]	; dd24 <LldpMainMemClear+0x3cc>
    dc80:	eb23164c 	bl	8d35b8 <UtlTrcLog>
    dc84:	eaffff9f 	b	db08 <LldpMainMemClear+0x1b0>
    dc88:	e59f3068 	ldr	r3, [pc, #104]	; dcf8 <LldpMainMemClear+0x3a0>
    dc8c:	e3a01020 	mov	r1, #32
    dc90:	e59f2064 	ldr	r2, [pc, #100]	; dcfc <LldpMainMemClear+0x3a4>
    dc94:	e5930a10 	ldr	r0, [r3, #2576]	; 0xa10
    dc98:	e59f3088 	ldr	r3, [pc, #136]	; dd28 <LldpMainMemClear+0x3d0>
    dc9c:	eb231645 	bl	8d35b8 <UtlTrcLog>
    dca0:	eaffff9e 	b	db20 <LldpMainMemClear+0x1c8>
    dca4:	e59f304c 	ldr	r3, [pc, #76]	; dcf8 <LldpMainMemClear+0x3a0>
    dca8:	e3a01020 	mov	r1, #32
    dcac:	e59f2048 	ldr	r2, [pc, #72]	; dcfc <LldpMainMemClear+0x3a4>
    dcb0:	e5930a10 	ldr	r0, [r3, #2576]	; 0xa10
    dcb4:	e59f3070 	ldr	r3, [pc, #112]	; dd2c <LldpMainMemClear+0x3d4>
    dcb8:	eb23163e 	bl	8d35b8 <UtlTrcLog>
    dcbc:	eaffff9d 	b	db38 <LldpMainMemClear+0x1e0>
    dcc0:	e59f3030 	ldr	r3, [pc, #48]	; dcf8 <LldpMainMemClear+0x3a0>
    dcc4:	e3a01020 	mov	r1, #32
    dcc8:	e59f202c 	ldr	r2, [pc, #44]	; dcfc <LldpMainMemClear+0x3a4>
    dccc:	e5930a10 	ldr	r0, [r3, #2576]	; 0xa10
    dcd0:	e59f3058 	ldr	r3, [pc, #88]	; dd30 <LldpMainMemClear+0x3d8>
    dcd4:	eb231637 	bl	8d35b8 <UtlTrcLog>
    dcd8:	eaffff9c 	b	db50 <LldpMainMemClear+0x1f8>
    dcdc:	e59f3014 	ldr	r3, [pc, #20]	; dcf8 <LldpMainMemClear+0x3a0>
    dce0:	e3a01020 	mov	r1, #32
    dce4:	e59f2010 	ldr	r2, [pc, #16]	; dcfc <LldpMainMemClear+0x3a4>
    dce8:	e5930a10 	ldr	r0, [r3, #2576]	; 0xa10
    dcec:	e59f3040 	ldr	r3, [pc, #64]	; dd34 <LldpMainMemClear+0x3dc>
    dcf0:	eb231630 	bl	8d35b8 <UtlTrcLog>
    dcf4:	eaffff4b 	b	da28 <LldpMainMemClear+0xd0>
    dcf8:	02342754 	eorseq	r2, r4, #22020096	; 0x1500000
    dcfc:	0117bfdc 			; <UNDEFINED> instruction: 0x0117bfdc
    dd00:	0117c390 			; <UNDEFINED> instruction: 0x0117c390
    dd04:	0117c6b8 			; <UNDEFINED> instruction: 0x0117c6b8
    dd08:	0117c674 	tsteq	r7, r4, ror r6
    dd0c:	0117c62c 	tsteq	r7, ip, lsr #12
    dd10:	0117c5f0 			; <UNDEFINED> instruction: 0x0117c5f0
    dd14:	0117c5b0 			; <UNDEFINED> instruction: 0x0117c5b0
    dd18:	0117c570 	tsteq	r7, r0, ror r5
    dd1c:	0117c52c 	tsteq	r7, ip, lsr #10
    dd20:	0117c4e4 	tsteq	r7, r4, ror #9
    dd24:	0117c494 			; <UNDEFINED> instruction: 0x0117c494
    dd28:	0117c450 	tsteq	r7, r0, asr r4
    dd2c:	0117c40c 	tsteq	r7, ip, lsl #8
    dd30:	0117c3d4 			; <UNDEFINED> instruction: 0x0117c3d4
    dd34:	0117c6fc 			; <UNDEFINED> instruction: 0x0117c6fc

0000dd38 <LldpMainTask>:
    dd38:	e1a0c00d 	mov	ip, sp
    dd3c:	e3002a3c 	movw	r2, #2620	; 0xa3c
    dd40:	e92dd830 	push	{r4, r5, fp, ip, lr, pc}
    dd44:	e24cb004 	sub	fp, ip, #4
    dd48:	e59f4344 	ldr	r4, [pc, #836]	; e094 <LldpMainTask+0x35c>
    dd4c:	e24dd008 	sub	sp, sp, #8
    dd50:	e3a05000 	mov	r5, #0
    dd54:	e1a01005 	mov	r1, r5
    dd58:	e50b5018 	str	r5, [fp, #-24]
    dd5c:	e1a00004 	mov	r0, r4
    dd60:	ebfff919 	bl	c1cc <_init+0x7f8>
    dd64:	e1a00004 	mov	r0, r4
    dd68:	eb23057d 	bl	8cf364 <OsixTskIdSelf>
    dd6c:	e59f0324 	ldr	r0, [pc, #804]	; e098 <LldpMainTask+0x360>
    dd70:	e284100c 	add	r1, r4, #12
    dd74:	eb2308f9 	bl	8d0160 <OsixSemCrt>
    dd78:	e3500001 	cmp	r0, #1
    dd7c:	0a0000be 	beq	e07c <LldpMainTask+0x344>
    dd80:	e59f0314 	ldr	r0, [pc, #788]	; e09c <LldpMainTask+0x364>
    dd84:	e2841010 	add	r1, r4, #16
    dd88:	eb2308f4 	bl	8d0160 <OsixSemCrt>
    dd8c:	e3500001 	cmp	r0, #1
    dd90:	0a0000b9 	beq	e07c <LldpMainTask+0x344>
    dd94:	e594000c 	ldr	r0, [r4, #12]
    dd98:	eb230694 	bl	8cf7f0 <OsixSemGive>
    dd9c:	e5940010 	ldr	r0, [r4, #16]
    dda0:	eb230692 	bl	8cf7f0 <OsixSemGive>
    dda4:	e3a01004 	mov	r1, #4
    dda8:	e59f02f0 	ldr	r0, [pc, #752]	; e0a0 <LldpMainTask+0x368>
    ddac:	e3a0203c 	mov	r2, #60	; 0x3c
    ddb0:	e0843001 	add	r3, r4, r1
    ddb4:	eb230884 	bl	8cffcc <OsixQueCrt>
    ddb8:	e3500001 	cmp	r0, #1
    ddbc:	0a0000a8 	beq	e064 <LldpMainTask+0x32c>
    ddc0:	e59f02dc 	ldr	r0, [pc, #732]	; e0a4 <LldpMainTask+0x36c>
    ddc4:	e3a01004 	mov	r1, #4
    ddc8:	e3a0203c 	mov	r2, #60	; 0x3c
    ddcc:	e2843008 	add	r3, r4, #8
    ddd0:	eb23087d 	bl	8cffcc <OsixQueCrt>
    ddd4:	e3500001 	cmp	r0, #1
    ddd8:	0a00009b 	beq	e04c <LldpMainTask+0x314>
    dddc:	e3a00e11 	mov	r0, #272	; 0x110
    dde0:	e3a0103c 	mov	r1, #60	; 0x3c
    dde4:	e1a02005 	mov	r2, r5
    dde8:	e284308c 	add	r3, r4, #140	; 0x8c
    ddec:	eb22fb25 	bl	8cca88 <MemCreateMemPool>
    ddf0:	e3700001 	cmn	r0, #1
    ddf4:	0a00008e 	beq	e034 <LldpMainTask+0x2fc>
    ddf8:	e3a00008 	mov	r0, #8
    ddfc:	e3a0103c 	mov	r1, #60	; 0x3c
    de00:	e1a02005 	mov	r2, r5
    de04:	e2843090 	add	r3, r4, #144	; 0x90
    de08:	eb22fb1e 	bl	8cca88 <MemCreateMemPool>
    de0c:	e3700001 	cmn	r0, #1
    de10:	0a000081 	beq	e01c <LldpMainTask+0x2e4>
    de14:	eb0001c2 	bl	e524 <LldpModuleStart>
    de18:	e3500001 	cmp	r0, #1
    de1c:	0a00003d 	beq	df18 <LldpMainTask+0x1e0>
    de20:	e3a00001 	mov	r0, #1
    de24:	eb2213c2 	bl	892d34 <PF_LLDPSetByPass>
    de28:	eb0088cf 	bl	3016c <RegisterFSLLDP>
    de2c:	eb008281 	bl	2e838 <RegisterSTDLLDP>
    de30:	eb00850c 	bl	2f268 <RegisterSTDOT1>
    de34:	eb0087d9 	bl	2fda0 <RegisterSTDOT3>
    de38:	e1a00005 	mov	r0, r5
    de3c:	e1a05004 	mov	r5, r4
    de40:	eb237011 	bl	8e9e8c <lrInitComplete>
    de44:	e3a0100f 	mov	r1, #15
    de48:	e3e02000 	mvn	r2, #0
    de4c:	e24b3018 	sub	r3, fp, #24
    de50:	e5940000 	ldr	r0, [r4]
    de54:	eb2305bd 	bl	8cf550 <OsixEvtRecv>
    de58:	e3500000 	cmp	r0, #0
    de5c:	1afffff8 	bne	de44 <LldpMainTask+0x10c>
    de60:	eb0022f0 	bl	16a28 <LldpLock>
    de64:	e51b3018 	ldr	r3, [fp, #-24]
    de68:	e3130001 	tst	r3, #1
    de6c:	1a000007 	bne	de90 <LldpMainTask+0x158>
    de70:	e3130002 	tst	r3, #2
    de74:	1a00000e 	bne	deb4 <LldpMainTask+0x17c>
    de78:	e3130004 	tst	r3, #4
    de7c:	1a000015 	bne	ded8 <LldpMainTask+0x1a0>
    de80:	e3130008 	tst	r3, #8
    de84:	1a00001c 	bne	defc <LldpMainTask+0x1c4>
    de88:	eb0022fa 	bl	16a78 <LldpUnLock>
    de8c:	eaffffec 	b	de44 <LldpMainTask+0x10c>
    de90:	e59f3210 	ldr	r3, [pc, #528]	; e0a8 <LldpMainTask+0x370>
    de94:	e3a01008 	mov	r1, #8
    de98:	e5950a10 	ldr	r0, [r5, #2576]	; 0xa10
    de9c:	e59f2208 	ldr	r2, [pc, #520]	; e0ac <LldpMainTask+0x374>
    dea0:	eb2315c4 	bl	8d35b8 <UtlTrcLog>
    dea4:	eb0008cd 	bl	101e0 <LldpTmrExpHandler>
    dea8:	e51b3018 	ldr	r3, [fp, #-24]
    deac:	e3130002 	tst	r3, #2
    deb0:	0afffff0 	beq	de78 <LldpMainTask+0x140>
    deb4:	e59f31f4 	ldr	r3, [pc, #500]	; e0b0 <LldpMainTask+0x378>
    deb8:	e3a01008 	mov	r1, #8
    debc:	e5940a10 	ldr	r0, [r4, #2576]	; 0xa10
    dec0:	e59f21e4 	ldr	r2, [pc, #484]	; e0ac <LldpMainTask+0x374>
    dec4:	eb2315bb 	bl	8d35b8 <UtlTrcLog>
    dec8:	eb0003ec 	bl	ee80 <LldpQueAppMsgHandler>
    decc:	e51b3018 	ldr	r3, [fp, #-24]
    ded0:	e3130004 	tst	r3, #4
    ded4:	0affffe9 	beq	de80 <LldpMainTask+0x148>
    ded8:	e59f31d4 	ldr	r3, [pc, #468]	; e0b4 <LldpMainTask+0x37c>
    dedc:	e3a01008 	mov	r1, #8
    dee0:	e5940a10 	ldr	r0, [r4, #2576]	; 0xa10
    dee4:	e59f21c0 	ldr	r2, [pc, #448]	; e0ac <LldpMainTask+0x374>
    dee8:	eb2315b2 	bl	8d35b8 <UtlTrcLog>
    deec:	eb0003ae 	bl	edac <LldpQueRxPduMsgHandler>
    def0:	e51b3018 	ldr	r3, [fp, #-24]
    def4:	e3130008 	tst	r3, #8
    def8:	0affffe2 	beq	de88 <LldpMainTask+0x150>
    defc:	e5940a10 	ldr	r0, [r4, #2576]	; 0xa10
    df00:	e3a01008 	mov	r1, #8
    df04:	e59f21a0 	ldr	r2, [pc, #416]	; e0ac <LldpMainTask+0x374>
    df08:	e59f31a8 	ldr	r3, [pc, #424]	; e0b8 <LldpMainTask+0x380>
    df0c:	eb2315a9 	bl	8d35b8 <UtlTrcLog>
    df10:	eb2d1397 	bl	b52d74 <lldp_Recover_Addr_Portlist>
    df14:	eaffffdb 	b	de88 <LldpMainTask+0x150>
    df18:	e5940a10 	ldr	r0, [r4, #2576]	; 0xa10
    df1c:	e3a01041 	mov	r1, #65	; 0x41
    df20:	e59f2184 	ldr	r2, [pc, #388]	; e0ac <LldpMainTask+0x374>
    df24:	e59f3190 	ldr	r3, [pc, #400]	; e0bc <LldpMainTask+0x384>
    df28:	eb2315a2 	bl	8d35b8 <UtlTrcLog>
    df2c:	eb002593 	bl	17580 <LldpUtilDeleteRBTree>
    df30:	ebfffe88 	bl	d958 <LldpMainMemClear>
    df34:	e5940004 	ldr	r0, [r4, #4]
    df38:	e594108c 	ldr	r1, [r4, #140]	; 0x8c
    df3c:	eb0036c6 	bl	1ba5c <LldpTxUtlDeleteQMsg>
    df40:	e594008c 	ldr	r0, [r4, #140]	; 0x8c
    df44:	eb22fb7e 	bl	8ccd44 <MemDeleteMemPool>
    df48:	e3700001 	cmn	r0, #1
    df4c:	1a000005 	bne	df68 <LldpMainTask+0x230>
    df50:	e59f313c 	ldr	r3, [pc, #316]	; e094 <LldpMainTask+0x35c>
    df54:	e3a01020 	mov	r1, #32
    df58:	e59f214c 	ldr	r2, [pc, #332]	; e0ac <LldpMainTask+0x374>
    df5c:	e5930a10 	ldr	r0, [r3, #2576]	; 0xa10
    df60:	e59f3158 	ldr	r3, [pc, #344]	; e0c0 <LldpMainTask+0x388>
    df64:	eb231593 	bl	8d35b8 <UtlTrcLog>
    df68:	e5940004 	ldr	r0, [r4, #4]
    df6c:	e3a03000 	mov	r3, #0
    df70:	e584308c 	str	r3, [r4, #140]	; 0x8c
    df74:	e1500003 	cmp	r0, r3
    df78:	0a000000 	beq	df80 <LldpMainTask+0x248>
    df7c:	eb2306ee 	bl	8cfb3c <OsixQueDel>
    df80:	e5940008 	ldr	r0, [r4, #8]
    df84:	e5941090 	ldr	r1, [r4, #144]	; 0x90
    df88:	eb0036b3 	bl	1ba5c <LldpTxUtlDeleteQMsg>
    df8c:	e5940090 	ldr	r0, [r4, #144]	; 0x90
    df90:	eb22fb6b 	bl	8ccd44 <MemDeleteMemPool>
    df94:	e3700001 	cmn	r0, #1
    df98:	1a000005 	bne	dfb4 <LldpMainTask+0x27c>
    df9c:	e59f30f0 	ldr	r3, [pc, #240]	; e094 <LldpMainTask+0x35c>
    dfa0:	e3a01020 	mov	r1, #32
    dfa4:	e59f2100 	ldr	r2, [pc, #256]	; e0ac <LldpMainTask+0x374>
    dfa8:	e5930a10 	ldr	r0, [r3, #2576]	; 0xa10
    dfac:	e59f310c 	ldr	r3, [pc, #268]	; e0c0 <LldpMainTask+0x388>
    dfb0:	eb231580 	bl	8d35b8 <UtlTrcLog>
    dfb4:	e5940008 	ldr	r0, [r4, #8]
    dfb8:	e3a03000 	mov	r3, #0
    dfbc:	e5843090 	str	r3, [r4, #144]	; 0x90
    dfc0:	e1500003 	cmp	r0, r3
    dfc4:	0a000000 	beq	dfcc <LldpMainTask+0x294>
    dfc8:	eb2306db 	bl	8cfb3c <OsixQueDel>
    dfcc:	e594000c 	ldr	r0, [r4, #12]
    dfd0:	e3500000 	cmp	r0, #0
    dfd4:	0a000000 	beq	dfdc <LldpMainTask+0x2a4>
    dfd8:	eb230c11 	bl	8d1024 <OsixSemDel>
    dfdc:	e59430dc 	ldr	r3, [r4, #220]	; 0xdc
    dfe0:	e3530000 	cmp	r3, #0
    dfe4:	0a000008 	beq	e00c <LldpMainTask+0x2d4>
    dfe8:	eb0007f7 	bl	ffcc <LldpTmrDeInit>
    dfec:	e3500001 	cmp	r0, #1
    dff0:	1a000005 	bne	e00c <LldpMainTask+0x2d4>
    dff4:	e59f3098 	ldr	r3, [pc, #152]	; e094 <LldpMainTask+0x35c>
    dff8:	e3a01020 	mov	r1, #32
    dffc:	e59f20a8 	ldr	r2, [pc, #168]	; e0ac <LldpMainTask+0x374>
    e000:	e5930a10 	ldr	r0, [r3, #2576]	; 0xa10
    e004:	e59f30b8 	ldr	r3, [pc, #184]	; e0c4 <LldpMainTask+0x38c>
    e008:	eb23156a 	bl	8d35b8 <UtlTrcLog>
    e00c:	e3a00001 	mov	r0, #1
    e010:	eb236f9d 	bl	8e9e8c <lrInitComplete>
    e014:	e24bd014 	sub	sp, fp, #20
    e018:	e89da830 	ldm	sp, {r4, r5, fp, sp, pc}
    e01c:	e5940a10 	ldr	r0, [r4, #2576]	; 0xa10
    e020:	e3a01020 	mov	r1, #32
    e024:	e59f2080 	ldr	r2, [pc, #128]	; e0ac <LldpMainTask+0x374>
    e028:	e59f3098 	ldr	r3, [pc, #152]	; e0c8 <LldpMainTask+0x390>
    e02c:	eb231561 	bl	8d35b8 <UtlTrcLog>
    e030:	eaffffbd 	b	df2c <LldpMainTask+0x1f4>
    e034:	e5940a10 	ldr	r0, [r4, #2576]	; 0xa10
    e038:	e3a01020 	mov	r1, #32
    e03c:	e59f2068 	ldr	r2, [pc, #104]	; e0ac <LldpMainTask+0x374>
    e040:	e59f3084 	ldr	r3, [pc, #132]	; e0cc <LldpMainTask+0x394>
    e044:	eb23155b 	bl	8d35b8 <UtlTrcLog>
    e048:	eaffffb7 	b	df2c <LldpMainTask+0x1f4>
    e04c:	e5940a10 	ldr	r0, [r4, #2576]	; 0xa10
    e050:	e3a01020 	mov	r1, #32
    e054:	e59f2050 	ldr	r2, [pc, #80]	; e0ac <LldpMainTask+0x374>
    e058:	e59f3070 	ldr	r3, [pc, #112]	; e0d0 <LldpMainTask+0x398>
    e05c:	eb231555 	bl	8d35b8 <UtlTrcLog>
    e060:	eaffffb1 	b	df2c <LldpMainTask+0x1f4>
    e064:	e5940a10 	ldr	r0, [r4, #2576]	; 0xa10
    e068:	e3a01020 	mov	r1, #32
    e06c:	e59f2038 	ldr	r2, [pc, #56]	; e0ac <LldpMainTask+0x374>
    e070:	e59f305c 	ldr	r3, [pc, #92]	; e0d4 <LldpMainTask+0x39c>
    e074:	eb23154f 	bl	8d35b8 <UtlTrcLog>
    e078:	eaffffab 	b	df2c <LldpMainTask+0x1f4>
    e07c:	e5940a10 	ldr	r0, [r4, #2576]	; 0xa10
    e080:	e3a01020 	mov	r1, #32
    e084:	e59f2020 	ldr	r2, [pc, #32]	; e0ac <LldpMainTask+0x374>
    e088:	e59f3048 	ldr	r3, [pc, #72]	; e0d8 <LldpMainTask+0x3a0>
    e08c:	eb231549 	bl	8d35b8 <UtlTrcLog>
    e090:	eaffffa5 	b	df2c <LldpMainTask+0x1f4>
    e094:	02342754 	eorseq	r2, r4, #22020096	; 0x1500000
    e098:	0117c738 	tsteq	r7, r8, lsr r7
    e09c:	0117c780 	tsteq	r7, r0, lsl #15
    e0a0:	0117c788 	tsteq	r7, r8, lsl #15
    e0a4:	0117c7c4 	tsteq	r7, r4, asr #15
    e0a8:	0117c920 	tsteq	r7, r0, lsr #18
    e0ac:	0117bfdc 			; <UNDEFINED> instruction: 0x0117bfdc
    e0b0:	0117c93c 	tsteq	r7, ip, lsr r9
    e0b4:	0117c958 	tsteq	r7, r8, asr r9
    e0b8:	0117c974 	tsteq	r7, r4, ror r9
    e0bc:	0117c878 	tsteq	r7, r8, ror r8
    e0c0:	0117c8ac 	tsteq	r7, ip, lsr #17
    e0c4:	0117c8ec 	tsteq	r7, ip, ror #17
    e0c8:	0117c83c 	tsteq	r7, ip, lsr r8
    e0cc:	0117c800 	tsteq	r7, r0, lsl #16
    e0d0:	0117c7cc 	tsteq	r7, ip, asr #15
    e0d4:	0117c790 			; <UNDEFINED> instruction: 0x0117c790
    e0d8:	0117c740 	tsteq	r7, r0, asr #14

0000e0dc <LldpMainInitGlobalInfo>:
    e0dc:	e1a0c00d 	mov	ip, sp
    e0e0:	e3a03000 	mov	r3, #0
    e0e4:	e92ddff0 	push	{r4, r5, r6, r7, r8, r9, sl, fp, ip, lr, pc}
    e0e8:	e24cb004 	sub	fp, ip, #4
    e0ec:	e24dd02c 	sub	sp, sp, #44	; 0x2c
    e0f0:	e24b0034 	sub	r0, fp, #52	; 0x34
    e0f4:	e54b3037 	strb	r3, [fp, #-55]	; 0x37
    e0f8:	e14b33b6 	strh	r3, [fp, #-54]	; 0xffffffca
    e0fc:	e50b3034 	str	r3, [fp, #-52]	; 0x34
    e100:	e14b33b0 	strh	r3, [fp, #-48]	; 0xffffffd0
    e104:	eb0049ab 	bl	207b8 <LldpPortGetSysMacAddr>
    e108:	e3a00004 	mov	r0, #4
    e10c:	e24b1034 	sub	r1, fp, #52	; 0x34
    e110:	e24b2036 	sub	r2, fp, #54	; 0x36
    e114:	e59f43d4 	ldr	r4, [pc, #980]	; e4f0 <LldpMainInitGlobalInfo+0x414>
    e118:	eb002559 	bl	17684 <LldpUtilGetChassisIdLen>
    e11c:	e2507000 	subs	r7, r0, #0
    e120:	1a0000e6 	bne	e4c0 <LldpMainInitGlobalInfo+0x3e4>
    e124:	e3a05004 	mov	r5, #4
    e128:	e2840e65 	add	r0, r4, #1616	; 0x650
    e12c:	e1a06000 	mov	r6, r0
    e130:	e24b1034 	sub	r1, fp, #52	; 0x34
    e134:	e15b23b6 	ldrh	r2, [fp, #-54]	; 0xffffffca
    e138:	e0800005 	add	r0, r0, r5
    e13c:	ebfff6e1 	bl	bcc8 <_init+0x2f4>
    e140:	e1a00006 	mov	r0, r6
    e144:	e584564c 	str	r5, [r4, #1612]	; 0x64c
    e148:	e1c670b0 	strh	r7, [r6]
    e14c:	eb00499a 	bl	207bc <LldpPortGetSysCapaSupported>
    e150:	e2860002 	add	r0, r6, #2
    e154:	e1c670b2 	strh	r7, [r6, #2]
    e158:	eb004998 	bl	207c0 <LldpPortGetSysCapaEnabled>
    e15c:	e2840e75 	add	r0, r4, #1872	; 0x750
    e160:	e2800003 	add	r0, r0, #3
    e164:	eb004962 	bl	206f4 <LldpPortGetSysName>
    e168:	e3500000 	cmp	r0, #0
    e16c:	1a0000b2 	bne	e43c <LldpMainInitGlobalInfo+0x360>
    e170:	e2840e85 	add	r0, r4, #2128	; 0x850
    e174:	e2800002 	add	r0, r0, #2
    e178:	eb004972 	bl	20748 <LldpPortGetSysDescr>
    e17c:	e3500000 	cmp	r0, #0
    e180:	1a0000d4 	bne	e4d8 <LldpMainInitGlobalInfo+0x3fc>
    e184:	e2841c0a 	add	r1, r4, #2560	; 0xa00
    e188:	e2843e99 	add	r3, r4, #2448	; 0x990
    e18c:	e2811004 	add	r1, r1, #4
    e190:	e2833004 	add	r3, r3, #4
    e194:	e50b3040 	str	r3, [fp, #-64]	; 0x40
    e198:	e5c45951 	strb	r5, [r4, #2385]	; 0x951
    e19c:	e5a30004 	str	r0, [r3, #4]!
    e1a0:	e1530001 	cmp	r3, r1
    e1a4:	e3a02000 	mov	r2, #0
    e1a8:	1afffffb 	bne	e19c <LldpMainInitGlobalInfo+0xc0>
    e1ac:	e3a0301e 	mov	r3, #30
    e1b0:	e3a01002 	mov	r1, #2
    e1b4:	e5843958 	str	r3, [r4, #2392]	; 0x958
    e1b8:	e3a03004 	mov	r3, #4
    e1bc:	e584395c 	str	r3, [r4, #2396]	; 0x95c
    e1c0:	e3a03001 	mov	r3, #1
    e1c4:	e3a0c005 	mov	ip, #5
    e1c8:	e24b0037 	sub	r0, fp, #55	; 0x37
    e1cc:	e5843970 	str	r3, [r4, #2416]	; 0x970
    e1d0:	e1a05002 	mov	r5, r2
    e1d4:	e5843974 	str	r3, [r4, #2420]	; 0x974
    e1d8:	e5843978 	str	r3, [r4, #2424]	; 0x978
    e1dc:	e3a03003 	mov	r3, #3
    e1e0:	e5841960 	str	r1, [r4, #2400]	; 0x960
    e1e4:	e5841964 	str	r1, [r4, #2404]	; 0x964
    e1e8:	e5842968 	str	r2, [r4, #2408]	; 0x968
    e1ec:	e584c96c 	str	ip, [r4, #2412]	; 0x96c
    e1f0:	e584397c 	str	r3, [r4, #2428]	; 0x97c
    e1f4:	e50b1048 	str	r1, [fp, #-72]	; 0x48
    e1f8:	e50b2044 	str	r2, [fp, #-68]	; 0x44
    e1fc:	eb0049c1 	bl	20908 <LldpPortGetProtoVlanCapab>
    e200:	e55bc037 	ldrb	ip, [fp, #-55]	; 0x37
    e204:	e3a03003 	mov	r3, #3
    e208:	e51b2044 	ldr	r2, [fp, #-68]	; 0x44
    e20c:	e59fa2dc 	ldr	sl, [pc, #732]	; e4f0 <LldpMainInitGlobalInfo+0x414>
    e210:	e35c0001 	cmp	ip, #1
    e214:	e5c43a30 	strb	r3, [r4, #2608]	; 0xa30
    e218:	13a0c002 	movne	ip, #2
    e21c:	e3a03001 	mov	r3, #1
    e220:	e58a2988 	str	r2, [sl, #2440]	; 0x988
    e224:	e28a9ea3 	add	r9, sl, #2608	; 0xa30
    e228:	e5caca32 	strb	ip, [sl, #2610]	; 0xa32
    e22c:	e28a6d29 	add	r6, sl, #2624	; 0xa40
    e230:	e51b1048 	ldr	r1, [fp, #-72]	; 0x48
    e234:	e28a8eb3 	add	r8, sl, #2864	; 0xb30
    e238:	e28a7ed2 	add	r7, sl, #3360	; 0xd20
    e23c:	e5843a24 	str	r3, [r4, #2596]	; 0xa24
    e240:	e5843a2c 	str	r3, [r4, #2604]	; 0xa2c
    e244:	e28a0d26 	add	r0, sl, #2432	; 0x980
    e248:	e51b3040 	ldr	r3, [fp, #-64]	; 0x40
    e24c:	e289900c 	add	r9, r9, #12
    e250:	e2866004 	add	r6, r6, #4
    e254:	e288800c 	add	r8, r8, #12
    e258:	e287700c 	add	r7, r7, #12
    e25c:	e1a0a005 	mov	sl, r5
    e260:	e5c42a33 	strb	r2, [r4, #2611]	; 0xa33
    e264:	e5c42a34 	strb	r2, [r4, #2612]	; 0xa34
    e268:	e5c41a31 	strb	r1, [r4, #2609]	; 0xa31
    e26c:	e5841a18 	str	r1, [r4, #2584]	; 0xa18
    e270:	e5c41034 	strb	r1, [r4, #52]	; 0x34
    e274:	e5c41058 	strb	r1, [r4, #88]	; 0x58
    e278:	e5842980 	str	r2, [r4, #2432]	; 0x980
    e27c:	e5842984 	str	r2, [r4, #2436]	; 0x984
    e280:	e580200c 	str	r2, [r0, #12]
    e284:	e5802010 	str	r2, [r0, #16]
    e288:	e5832000 	str	r2, [r3]
    e28c:	e5842a1c 	str	r2, [r4, #2588]	; 0xa1c
    e290:	e5842a20 	str	r2, [r4, #2592]	; 0xa20
    e294:	e0652285 	rsb	r2, r5, r5, lsl #5
    e298:	e0873105 	add	r3, r7, r5, lsl #2
    e29c:	e0882002 	add	r2, r8, r2
    e2a0:	e3a01000 	mov	r1, #0
    e2a4:	e5062008 	str	r2, [r6, #-8]
    e2a8:	e3a0201f 	mov	r2, #31
    e2ac:	e5893008 	str	r3, [r9, #8]
    e2b0:	e2855001 	add	r5, r5, #1
    e2b4:	e5160008 	ldr	r0, [r6, #-8]
    e2b8:	ebfff7c3 	bl	c1cc <_init+0x7f8>
    e2bc:	e3a0301f 	mov	r3, #31
    e2c0:	e3550010 	cmp	r5, #16
    e2c4:	e5063004 	str	r3, [r6, #-4]
    e2c8:	e3a02000 	mov	r2, #0
    e2cc:	e5991008 	ldr	r1, [r9, #8]
    e2d0:	e2866010 	add	r6, r6, #16
    e2d4:	e1a03001 	mov	r3, r1
    e2d8:	e4c3a001 	strb	sl, [r3], #1
    e2dc:	e2833001 	add	r3, r3, #1
    e2e0:	e5c1a001 	strb	sl, [r1, #1]
    e2e4:	e4c3a001 	strb	sl, [r3], #1
    e2e8:	e5c3a000 	strb	sl, [r3]
    e2ec:	e3a03004 	mov	r3, #4
    e2f0:	e589300c 	str	r3, [r9, #12]
    e2f4:	e2899010 	add	r9, r9, #16
    e2f8:	1affffe5 	bne	e294 <LldpMainInitGlobalInfo+0x1b8>
    e2fc:	e59f11f0 	ldr	r1, [pc, #496]	; e4f4 <LldpMainInitGlobalInfo+0x418>
    e300:	e1a03002 	mov	r3, r2
    e304:	e59fe1ec 	ldr	lr, [pc, #492]	; e4f8 <LldpMainInitGlobalInfo+0x41c>
    e308:	e1a0c002 	mov	ip, r2
    e30c:	e59f51e8 	ldr	r5, [pc, #488]	; e4fc <LldpMainInitGlobalInfo+0x420>
    e310:	e3a0a002 	mov	sl, #2
    e314:	e8910003 	ldm	r1, {r0, r1}
    e318:	e1a0600e 	mov	r6, lr
    e31c:	e5ce202d 	strb	r2, [lr, #45]	; 0x2d
    e320:	e486a004 	str	sl, [r6], #4
    e324:	e5c52000 	strb	r2, [r5]
    e328:	e5c52002 	strb	r2, [r5, #2]
    e32c:	e5c52001 	strb	r2, [r5, #1]
    e330:	e5c52003 	strb	r2, [r5, #3]
    e334:	e58e0004 	str	r0, [lr, #4]
    e338:	e1c610b4 	strh	r1, [r6, #4]
    e33c:	e5ce202e 	strb	r2, [lr, #46]	; 0x2e
    e340:	e5ce202f 	strb	r2, [lr, #47]	; 0x2f
    e344:	e5ce2030 	strb	r2, [lr, #48]	; 0x30
    e348:	e1ce24be 	strh	r2, [lr, #78]	; 0x4e
    e34c:	e1ce25b0 	strh	r2, [lr, #80]	; 0x50
    e350:	e1ce25b2 	strh	r2, [lr, #82]	; 0x52
    e354:	e1ce25b4 	strh	r2, [lr, #84]	; 0x54
    e358:	e1ce25b6 	strh	r2, [lr, #86]	; 0x56
    e35c:	e1ce25b8 	strh	r2, [lr, #88]	; 0x58
    e360:	e1ce25ba 	strh	r2, [lr, #90]	; 0x5a
    e364:	e1ce25bc 	strh	r2, [lr, #92]	; 0x5c
    e368:	e1ce25be 	strh	r2, [lr, #94]	; 0x5e
    e36c:	e1ce26b0 	strh	r2, [lr, #96]	; 0x60
    e370:	e1ce26b2 	strh	r2, [lr, #98]	; 0x62
    e374:	e1ce26b4 	strh	r2, [lr, #100]	; 0x64
    e378:	e5ce2066 	strb	r2, [lr, #102]	; 0x66
    e37c:	e0832083 	add	r2, r3, r3, lsl #1
    e380:	e2833001 	add	r3, r3, #1
    e384:	e353001d 	cmp	r3, #29
    e388:	e2822060 	add	r2, r2, #96	; 0x60
    e38c:	e3a05000 	mov	r5, #0
    e390:	e082200e 	add	r2, r2, lr
    e394:	e5c2c007 	strb	ip, [r2, #7]
    e398:	e5c2c008 	strb	ip, [r2, #8]
    e39c:	e5c2c009 	strb	ip, [r2, #9]
    e3a0:	1afffff5 	bne	e37c <LldpMainInitGlobalInfo+0x2a0>
    e3a4:	e59f8144 	ldr	r8, [pc, #324]	; e4f0 <LldpMainInitGlobalInfo+0x414>
    e3a8:	e3a07001 	mov	r7, #1
    e3ac:	e59fa14c 	ldr	sl, [pc, #332]	; e500 <LldpMainInitGlobalInfo+0x424>
    e3b0:	e1a01005 	mov	r1, r5
    e3b4:	e59f0148 	ldr	r0, [pc, #328]	; e504 <LldpMainInitGlobalInfo+0x428>
    e3b8:	e3a02018 	mov	r2, #24
    e3bc:	ebfff782 	bl	c1cc <_init+0x7f8>
    e3c0:	e5845a14 	str	r5, [r4, #2580]	; 0xa14
    e3c4:	e3a06001 	mov	r6, #1
    e3c8:	e5940074 	ldr	r0, [r4, #116]	; 0x74
    e3cc:	eb22fae2 	bl	8ccf5c <MemAllocMemBlk>
    e3d0:	e2505000 	subs	r5, r0, #0
    e3d4:	e3a01000 	mov	r1, #0
    e3d8:	e3a02f47 	mov	r2, #284	; 0x11c
    e3dc:	0a00002e 	beq	e49c <LldpMainInitGlobalInfo+0x3c0>
    e3e0:	ebfff779 	bl	c1cc <_init+0x7f8>
    e3e4:	e3a03000 	mov	r3, #0
    e3e8:	e3a020ff 	mov	r2, #255	; 0xff
    e3ec:	e1a01003 	mov	r1, r3
    e3f0:	e5c53117 	strb	r3, [r5, #279]	; 0x117
    e3f4:	e5856014 	str	r6, [r5, #20]
    e3f8:	e2850018 	add	r0, r5, #24
    e3fc:	e5857010 	str	r7, [r5, #16]
    e400:	ebfff771 	bl	c1cc <_init+0x7f8>
    e404:	e1a01005 	mov	r1, r5
    e408:	e59800e4 	ldr	r0, [r8, #228]	; 0xe4
    e40c:	eb2371ef 	bl	8eabd0 <RBTreeAdd>
    e410:	e3500000 	cmp	r0, #0
    e414:	1a000014 	bne	e46c <LldpMainInitGlobalInfo+0x390>
    e418:	e2866001 	add	r6, r6, #1
    e41c:	e3560005 	cmp	r6, #5
    e420:	1affffe8 	bne	e3c8 <LldpMainInitGlobalInfo+0x2ec>
    e424:	e2877001 	add	r7, r7, #1
    e428:	e357001d 	cmp	r7, #29
    e42c:	1affffe4 	bne	e3c4 <LldpMainInitGlobalInfo+0x2e8>
    e430:	e3a00000 	mov	r0, #0
    e434:	e24bd028 	sub	sp, fp, #40	; 0x28
    e438:	e89daff0 	ldm	sp, {r4, r5, r6, r7, r8, r9, sl, fp, sp, pc}
    e43c:	e5940a10 	ldr	r0, [r4, #2576]	; 0xa10
    e440:	e3a01001 	mov	r1, #1
    e444:	e59f20bc 	ldr	r2, [pc, #188]	; e508 <LldpMainInitGlobalInfo+0x42c>
    e448:	e59f30bc 	ldr	r3, [pc, #188]	; e50c <LldpMainInitGlobalInfo+0x430>
    e44c:	eb231459 	bl	8d35b8 <UtlTrcLog>
    e450:	e5940a10 	ldr	r0, [r4, #2576]	; 0xa10
    e454:	e3a01041 	mov	r1, #65	; 0x41
    e458:	e59f20a8 	ldr	r2, [pc, #168]	; e508 <LldpMainInitGlobalInfo+0x42c>
    e45c:	e59f30ac 	ldr	r3, [pc, #172]	; e510 <LldpMainInitGlobalInfo+0x434>
    e460:	eb231454 	bl	8d35b8 <UtlTrcLog>
    e464:	e3a00001 	mov	r0, #1
    e468:	eafffff1 	b	e434 <LldpMainInitGlobalInfo+0x358>
    e46c:	e1a01005 	mov	r1, r5
    e470:	e5980074 	ldr	r0, [r8, #116]	; 0x74
    e474:	eb22fac5 	bl	8ccf90 <MemReleaseMemBlock>
    e478:	e3003315 	movw	r3, #789	; 0x315
    e47c:	e5980a10 	ldr	r0, [r8, #2576]	; 0xa10
    e480:	e3a01040 	mov	r1, #64	; 0x40
    e484:	e58d3004 	str	r3, [sp, #4]
    e488:	e58da000 	str	sl, [sp]
    e48c:	e59f2074 	ldr	r2, [pc, #116]	; e508 <LldpMainInitGlobalInfo+0x42c>
    e490:	e59f307c 	ldr	r3, [pc, #124]	; e514 <LldpMainInitGlobalInfo+0x438>
    e494:	eb231447 	bl	8d35b8 <UtlTrcLog>
    e498:	eaffffde 	b	e418 <LldpMainInitGlobalInfo+0x33c>
    e49c:	e3003306 	movw	r3, #774	; 0x306
    e4a0:	e5980a10 	ldr	r0, [r8, #2576]	; 0xa10
    e4a4:	e3a01040 	mov	r1, #64	; 0x40
    e4a8:	e58d3004 	str	r3, [sp, #4]
    e4ac:	e58da000 	str	sl, [sp]
    e4b0:	e59f2050 	ldr	r2, [pc, #80]	; e508 <LldpMainInitGlobalInfo+0x42c>
    e4b4:	e59f305c 	ldr	r3, [pc, #92]	; e518 <LldpMainInitGlobalInfo+0x43c>
    e4b8:	eb23143e 	bl	8d35b8 <UtlTrcLog>
    e4bc:	eaffffd5 	b	e418 <LldpMainInitGlobalInfo+0x33c>
    e4c0:	e3a01001 	mov	r1, #1
    e4c4:	e59f203c 	ldr	r2, [pc, #60]	; e508 <LldpMainInitGlobalInfo+0x42c>
    e4c8:	e59f304c 	ldr	r3, [pc, #76]	; e51c <LldpMainInitGlobalInfo+0x440>
    e4cc:	e5940a10 	ldr	r0, [r4, #2576]	; 0xa10
    e4d0:	eb231438 	bl	8d35b8 <UtlTrcLog>
    e4d4:	eaffffdd 	b	e450 <LldpMainInitGlobalInfo+0x374>
    e4d8:	e5940a10 	ldr	r0, [r4, #2576]	; 0xa10
    e4dc:	e3a01001 	mov	r1, #1
    e4e0:	e59f2020 	ldr	r2, [pc, #32]	; e508 <LldpMainInitGlobalInfo+0x42c>
    e4e4:	e59f3034 	ldr	r3, [pc, #52]	; e520 <LldpMainInitGlobalInfo+0x444>
    e4e8:	eb231432 	bl	8d35b8 <UtlTrcLog>
    e4ec:	eaffffd7 	b	e450 <LldpMainInitGlobalInfo+0x374>
    e4f0:	02342754 	eorseq	r2, r4, #22020096	; 0x1500000
    e4f4:	0117ca50 	tsteq	r7, r0, asr sl
    e4f8:	03e95f18 	mvneq	r5, #96	; 0x60
    e4fc:	03e95f10 	mvneq	r5, #64	; 0x40
    e500:	0117b960 	tsteq	r7, r0, ror #18
    e504:	03e95fc8 	mvneq	r5, #800	; 0x320
    e508:	0117bfdc 			; <UNDEFINED> instruction: 0x0117bfdc
    e50c:	0117c9d4 			; <UNDEFINED> instruction: 0x0117c9d4
    e510:	0117ca9c 			; <UNDEFINED> instruction: 0x0117ca9c
    e514:	0117ca7c 	tsteq	r7, ip, ror sl
    e518:	0117ca58 	tsteq	r7, r8, asr sl
    e51c:	0117c990 			; <UNDEFINED> instruction: 0x0117c990
    e520:	0117ca10 	tsteq	r7, r0, lsl sl

0000e524 <LldpModuleStart>:
    e524:	e1a0c00d 	mov	ip, sp
    e528:	e92dd878 	push	{r3, r4, r5, r6, fp, ip, lr, pc}
    e52c:	e3a03002 	mov	r3, #2
    e530:	e59f40e4 	ldr	r4, [pc, #228]	; e61c <LldpModuleStart+0xf8>
    e534:	e24cb004 	sub	fp, ip, #4
    e538:	e5843a18 	str	r3, [r4, #2584]	; 0xa18
    e53c:	ebfffc2a 	bl	d5ec <LldpMainMemInit>
    e540:	e3500001 	cmp	r0, #1
    e544:	e1a05000 	mov	r5, r0
    e548:	0a00001e 	beq	e5c8 <LldpModuleStart+0xa4>
    e54c:	eb0023d3 	bl	174a0 <LldpUtilCreateRBTree>
    e550:	eb00065e 	bl	fed0 <LldpTmrInit>
    e554:	e3500001 	cmp	r0, #1
    e558:	e1a05000 	mov	r5, r0
    e55c:	0a000021 	beq	e5e8 <LldpModuleStart+0xc4>
    e560:	ebfffedd 	bl	e0dc <LldpMainInitGlobalInfo>
    e564:	e3500000 	cmp	r0, #0
    e568:	1a00000c 	bne	e5a0 <LldpModuleStart+0x7c>
    e56c:	e3a06001 	mov	r6, #1
    e570:	e5c46a30 	strb	r6, [r4, #2608]	; 0xa30
    e574:	eb004967 	bl	20b18 <LldpPortRegisterWithIp>
    e578:	e2505000 	subs	r5, r0, #0
    e57c:	1a000022 	bne	e60c <LldpModuleStart+0xe8>
    e580:	e5940a10 	ldr	r0, [r4, #2576]	; 0xa10
    e584:	e1a01006 	mov	r1, r6
    e588:	e59f2090 	ldr	r2, [pc, #144]	; e620 <LldpModuleStart+0xfc>
    e58c:	e59f3090 	ldr	r3, [pc, #144]	; e624 <LldpModuleStart+0x100>
    e590:	eb231408 	bl	8d35b8 <UtlTrcLog>
    e594:	eb004dcf 	bl	21cd8 <LldpIfCreateAllPorts>
    e598:	e1a00005 	mov	r0, r5
    e59c:	e89da878 	ldm	sp, {r3, r4, r5, r6, fp, sp, pc}
    e5a0:	e59f2078 	ldr	r2, [pc, #120]	; e620 <LldpModuleStart+0xfc>
    e5a4:	e3a01041 	mov	r1, #65	; 0x41
    e5a8:	e59f3078 	ldr	r3, [pc, #120]	; e628 <LldpModuleStart+0x104>
    e5ac:	e5940a10 	ldr	r0, [r4, #2576]	; 0xa10
    e5b0:	eb231400 	bl	8d35b8 <UtlTrcLog>
    e5b4:	eb000684 	bl	ffcc <LldpTmrDeInit>
    e5b8:	eb0023f0 	bl	17580 <LldpUtilDeleteRBTree>
    e5bc:	ebfffce5 	bl	d958 <LldpMainMemClear>
    e5c0:	e3a00001 	mov	r0, #1
    e5c4:	e89da878 	ldm	sp, {r3, r4, r5, r6, fp, sp, pc}
    e5c8:	e5940a10 	ldr	r0, [r4, #2576]	; 0xa10
    e5cc:	e3a01041 	mov	r1, #65	; 0x41
    e5d0:	e59f2048 	ldr	r2, [pc, #72]	; e620 <LldpModuleStart+0xfc>
    e5d4:	e59f3050 	ldr	r3, [pc, #80]	; e62c <LldpModuleStart+0x108>
    e5d8:	eb2313f6 	bl	8d35b8 <UtlTrcLog>
    e5dc:	ebfffcdd 	bl	d958 <LldpMainMemClear>
    e5e0:	e1a00005 	mov	r0, r5
    e5e4:	e89da878 	ldm	sp, {r3, r4, r5, r6, fp, sp, pc}
    e5e8:	e5940a10 	ldr	r0, [r4, #2576]	; 0xa10
    e5ec:	e3a01041 	mov	r1, #65	; 0x41
    e5f0:	e59f2028 	ldr	r2, [pc, #40]	; e620 <LldpModuleStart+0xfc>
    e5f4:	e59f3034 	ldr	r3, [pc, #52]	; e630 <LldpModuleStart+0x10c>
    e5f8:	eb2313ee 	bl	8d35b8 <UtlTrcLog>
    e5fc:	eb0023df 	bl	17580 <LldpUtilDeleteRBTree>
    e600:	ebfffcd4 	bl	d958 <LldpMainMemClear>
    e604:	e1a00005 	mov	r0, r5
    e608:	e89da878 	ldm	sp, {r3, r4, r5, r6, fp, sp, pc}
    e60c:	e3a01040 	mov	r1, #64	; 0x40
    e610:	e59f2008 	ldr	r2, [pc, #8]	; e620 <LldpModuleStart+0xfc>
    e614:	e59f3018 	ldr	r3, [pc, #24]	; e634 <LldpModuleStart+0x110>
    e618:	eaffffe3 	b	e5ac <LldpModuleStart+0x88>
    e61c:	02342754 	eorseq	r2, r4, #22020096	; 0x1500000
    e620:	0117bfdc 			; <UNDEFINED> instruction: 0x0117bfdc
    e624:	0117cbbc 			; <UNDEFINED> instruction: 0x0117cbbc
    e628:	0117cb50 	tsteq	r7, r0, asr fp
    e62c:	0117cae8 	tsteq	r7, r8, ror #21
    e630:	0117cb1c 	tsteq	r7, ip, lsl fp
    e634:	0117cb88 	tsteq	r7, r8, lsl #23

0000e638 <LldpModuleEnable>:
    e638:	e1a0c00d 	mov	ip, sp
    e63c:	e3a01001 	mov	r1, #1
    e640:	e92ddbf0 	push	{r4, r5, r6, r7, r8, r9, fp, ip, lr, pc}
    e644:	e24cb004 	sub	fp, ip, #4
    e648:	e59f8168 	ldr	r8, [pc, #360]	; e7b8 <LldpModuleEnable+0x180>
    e64c:	e59f2168 	ldr	r2, [pc, #360]	; e7bc <LldpModuleEnable+0x184>
    e650:	e59f3168 	ldr	r3, [pc, #360]	; e7c0 <LldpModuleEnable+0x188>
    e654:	e5980a10 	ldr	r0, [r8, #2576]	; 0xa10
    e658:	eb2313d6 	bl	8d35b8 <UtlTrcLog>
    e65c:	e3a03001 	mov	r3, #1
    e660:	e59f015c 	ldr	r0, [pc, #348]	; e7c4 <LldpModuleEnable+0x18c>
    e664:	e1a01003 	mov	r1, r3
    e668:	e5c83a31 	strb	r3, [r8, #2609]	; 0xa31
    e66c:	eb222c8a 	bl	89989c <SysLogRegister>
    e670:	e3500000 	cmp	r0, #0
    e674:	ba000049 	blt	e7a0 <LldpModuleEnable+0x168>
    e678:	e2885e99 	add	r5, r8, #2448	; 0x990
    e67c:	e2886c0a 	add	r6, r8, #2560	; 0xa00
    e680:	e2855004 	add	r5, r5, #4
    e684:	e2866004 	add	r6, r6, #4
    e688:	e3a07000 	mov	r7, #0
    e68c:	e5880a14 	str	r0, [r8, #2580]	; 0xa14
    e690:	e5b54004 	ldr	r4, [r5, #4]!
    e694:	e3540000 	cmp	r4, #0
    e698:	0a00001a 	beq	e708 <LldpModuleEnable+0xd0>
    e69c:	e5d43343 	ldrb	r3, [r4, #835]	; 0x343
    e6a0:	e5c4734d 	strb	r7, [r4, #845]	; 0x34d
    e6a4:	e3530002 	cmp	r3, #2
    e6a8:	0a000016 	beq	e708 <LldpModuleEnable+0xd0>
    e6ac:	e5943080 	ldr	r3, [r4, #128]	; 0x80
    e6b0:	e2433001 	sub	r3, r3, #1
    e6b4:	e3530003 	cmp	r3, #3
    e6b8:	979ff103 	ldrls	pc, [pc, r3, lsl #2]
    e6bc:	ea00000c 	b	e6f4 <LldpModuleEnable+0xbc>
    e6c0:	0000e750 	andeq	lr, r0, r0, asr r7
    e6c4:	0000e728 	andeq	lr, r0, r8, lsr #14
    e6c8:	0000e778 	andeq	lr, r0, r8, ror r7
    e6cc:	0000e6d0 	ldrdeq	lr, [r0], -r0
    e6d0:	e3a01003 	mov	r1, #3
    e6d4:	e1a00004 	mov	r0, r4
    e6d8:	eb0007cb 	bl	1060c <LldpTxSmMachine>
    e6dc:	e1a00004 	mov	r0, r4
    e6e0:	e3a01003 	mov	r1, #3
    e6e4:	eb000a60 	bl	1106c <LldpTxTmrSmMachine>
    e6e8:	e1a00004 	mov	r0, r4
    e6ec:	e3a01004 	mov	r1, #4
    e6f0:	eb000dc6 	bl	11e10 <LldpRxSemRun>
    e6f4:	e5980a10 	ldr	r0, [r8, #2576]	; 0xa10
    e6f8:	e3a01040 	mov	r1, #64	; 0x40
    e6fc:	e59f20b8 	ldr	r2, [pc, #184]	; e7bc <LldpModuleEnable+0x184>
    e700:	e59f30c0 	ldr	r3, [pc, #192]	; e7c8 <LldpModuleEnable+0x190>
    e704:	eb2313ab 	bl	8d35b8 <UtlTrcLog>
    e708:	e1550006 	cmp	r5, r6
    e70c:	1affffdf 	bne	e690 <LldpModuleEnable+0x58>
    e710:	e5980a10 	ldr	r0, [r8, #2576]	; 0xa10
    e714:	e3a01008 	mov	r1, #8
    e718:	e59f209c 	ldr	r2, [pc, #156]	; e7bc <LldpModuleEnable+0x184>
    e71c:	e59f30a8 	ldr	r3, [pc, #168]	; e7cc <LldpModuleEnable+0x194>
    e720:	e89d6bf0 	ldm	sp, {r4, r5, r6, r7, r8, r9, fp, sp, lr}
    e724:	ea2313a3 	b	8d35b8 <UtlTrcLog>
    e728:	e1a00004 	mov	r0, r4
    e72c:	e3a01003 	mov	r1, #3
    e730:	eb000db6 	bl	11e10 <LldpRxSemRun>
    e734:	e1a00004 	mov	r0, r4
    e738:	e3a01003 	mov	r1, #3
    e73c:	eb0007b2 	bl	1060c <LldpTxSmMachine>
    e740:	e1a00004 	mov	r0, r4
    e744:	e3a01003 	mov	r1, #3
    e748:	eb000a47 	bl	1106c <LldpTxTmrSmMachine>
    e74c:	eaffffed 	b	e708 <LldpModuleEnable+0xd0>
    e750:	e1a00004 	mov	r0, r4
    e754:	e3a01002 	mov	r1, #2
    e758:	eb0007ab 	bl	1060c <LldpTxSmMachine>
    e75c:	e1a00004 	mov	r0, r4
    e760:	e3a01002 	mov	r1, #2
    e764:	eb000a40 	bl	1106c <LldpTxTmrSmMachine>
    e768:	e1a00004 	mov	r0, r4
    e76c:	e3a01004 	mov	r1, #4
    e770:	eb000da6 	bl	11e10 <LldpRxSemRun>
    e774:	eaffffe3 	b	e708 <LldpModuleEnable+0xd0>
    e778:	e1a00004 	mov	r0, r4
    e77c:	e3a01002 	mov	r1, #2
    e780:	eb0007a1 	bl	1060c <LldpTxSmMachine>
    e784:	e1a00004 	mov	r0, r4
    e788:	e3a01002 	mov	r1, #2
    e78c:	eb000a36 	bl	1106c <LldpTxTmrSmMachine>
    e790:	e1a00004 	mov	r0, r4
    e794:	e3a01003 	mov	r1, #3
    e798:	eb000d9c 	bl	11e10 <LldpRxSemRun>
    e79c:	eaffffd9 	b	e708 <LldpModuleEnable+0xd0>
    e7a0:	e5980a10 	ldr	r0, [r8, #2576]	; 0xa10
    e7a4:	e3a01d81 	mov	r1, #8256	; 0x2040
    e7a8:	e59f200c 	ldr	r2, [pc, #12]	; e7bc <LldpModuleEnable+0x184>
    e7ac:	e59f301c 	ldr	r3, [pc, #28]	; e7d0 <LldpModuleEnable+0x198>
    e7b0:	e89d6bf0 	ldm	sp, {r4, r5, r6, r7, r8, r9, fp, sp, lr}
    e7b4:	ea23137f 	b	8d35b8 <UtlTrcLog>
    e7b8:	02342754 	eorseq	r2, r4, #22020096	; 0x1500000
    e7bc:	0117bfdc 			; <UNDEFINED> instruction: 0x0117bfdc
    e7c0:	0117cbf4 			; <UNDEFINED> instruction: 0x0117cbf4
    e7c4:	0117cc20 	tsteq	r7, r0, lsr #24
    e7c8:	0117cc5c 	tsteq	r7, ip, asr ip
    e7cc:	0117cc88 	tsteq	r7, r8, lsl #25
    e7d0:	0117cc28 	tsteq	r7, r8, lsr #24

0000e7d4 <LldpModuleDisable>:
    e7d4:	e1a0c00d 	mov	ip, sp
    e7d8:	e3a01001 	mov	r1, #1
    e7dc:	e92dddf0 	push	{r4, r5, r6, r7, r8, sl, fp, ip, lr, pc}
    e7e0:	e24cb004 	sub	fp, ip, #4
    e7e4:	e59f80f0 	ldr	r8, [pc, #240]	; e8dc <LldpModuleDisable+0x108>
    e7e8:	e59f20f0 	ldr	r2, [pc, #240]	; e8e0 <LldpModuleDisable+0x10c>
    e7ec:	e59f30f0 	ldr	r3, [pc, #240]	; e8e4 <LldpModuleDisable+0x110>
    e7f0:	e5980a10 	ldr	r0, [r8, #2576]	; 0xa10
    e7f4:	eb23136f 	bl	8d35b8 <UtlTrcLog>
    e7f8:	e3a03002 	mov	r3, #2
    e7fc:	e5980a14 	ldr	r0, [r8, #2580]	; 0xa14
    e800:	e5c83a31 	strb	r3, [r8, #2609]	; 0xa31
    e804:	eb222c4d 	bl	899940 <SysLogDeRegister>
    e808:	e5d84034 	ldrb	r4, [r8, #52]	; 0x34
    e80c:	e3a03000 	mov	r3, #0
    e810:	e5883a14 	str	r3, [r8, #2580]	; 0xa14
    e814:	e3540001 	cmp	r4, #1
    e818:	0a000021 	beq	e8a4 <LldpModuleDisable+0xd0>
    e81c:	e59f50c4 	ldr	r5, [pc, #196]	; e8e8 <LldpModuleDisable+0x114>
    e820:	e3a0a000 	mov	sl, #0
    e824:	e2857070 	add	r7, r5, #112	; 0x70
    e828:	ea00000a 	b	e858 <LldpModuleDisable+0x84>
    e82c:	e3a01003 	mov	r1, #3
    e830:	e1a00004 	mov	r0, r4
    e834:	eb000774 	bl	1060c <LldpTxSmMachine>
    e838:	e1a00004 	mov	r0, r4
    e83c:	e3a01003 	mov	r1, #3
    e840:	eb000a09 	bl	1106c <LldpTxTmrSmMachine>
    e844:	e1a00004 	mov	r0, r4
    e848:	e3a01004 	mov	r1, #4
    e84c:	eb000d6f 	bl	11e10 <LldpRxSemRun>
    e850:	e1550007 	cmp	r5, r7
    e854:	0a000011 	beq	e8a0 <LldpModuleDisable+0xcc>
    e858:	e5b54004 	ldr	r4, [r5, #4]!
    e85c:	e3540000 	cmp	r4, #0
    e860:	0afffffa 	beq	e850 <LldpModuleDisable+0x7c>
    e864:	e5d46352 	ldrb	r6, [r4, #850]	; 0x352
    e868:	e3560001 	cmp	r6, #1
    e86c:	1affffee 	bne	e82c <LldpModuleDisable+0x58>
    e870:	e3a01002 	mov	r1, #2
    e874:	e5c4a352 	strb	sl, [r4, #850]	; 0x352
    e878:	e1a00004 	mov	r0, r4
    e87c:	eb003093 	bl	1aad0 <LldpTxUtlConstructPreformedBuf>
    e880:	e3500000 	cmp	r0, #0
    e884:	0affffe8 	beq	e82c <LldpModuleDisable+0x58>
    e888:	e59f2050 	ldr	r2, [pc, #80]	; e8e0 <LldpModuleDisable+0x10c>
    e88c:	e1a01006 	mov	r1, r6
    e890:	e59f3054 	ldr	r3, [pc, #84]	; e8ec <LldpModuleDisable+0x118>
    e894:	e5980a10 	ldr	r0, [r8, #2576]	; 0xa10
    e898:	eb231346 	bl	8d35b8 <UtlTrcLog>
    e89c:	eaffffe2 	b	e82c <LldpModuleDisable+0x58>
    e8a0:	e89dadf0 	ldm	sp, {r4, r5, r6, r7, r8, sl, fp, sp, pc}
    e8a4:	e59800dc 	ldr	r0, [r8, #220]	; 0xdc
    e8a8:	e2881014 	add	r1, r8, #20
    e8ac:	eb231095 	bl	8d2b08 <TmrStopTimer>
    e8b0:	e3500000 	cmp	r0, #0
    e8b4:	1a000002 	bne	e8c4 <LldpModuleDisable+0xf0>
    e8b8:	e3a03002 	mov	r3, #2
    e8bc:	e5c83034 	strb	r3, [r8, #52]	; 0x34
    e8c0:	eaffffd5 	b	e81c <LldpModuleDisable+0x48>
    e8c4:	e5980a10 	ldr	r0, [r8, #2576]	; 0xa10
    e8c8:	e1a01004 	mov	r1, r4
    e8cc:	e59f200c 	ldr	r2, [pc, #12]	; e8e0 <LldpModuleDisable+0x10c>
    e8d0:	e59f3018 	ldr	r3, [pc, #24]	; e8f0 <LldpModuleDisable+0x11c>
    e8d4:	eb231337 	bl	8d35b8 <UtlTrcLog>
    e8d8:	eafffff6 	b	e8b8 <LldpModuleDisable+0xe4>
    e8dc:	02342754 	eorseq	r2, r4, #22020096	; 0x1500000
    e8e0:	0117bfdc 			; <UNDEFINED> instruction: 0x0117bfdc
    e8e4:	0117cca0 	tsteq	r7, r0, lsr #25
    e8e8:	023430e8 	eorseq	r3, r4, #232	; 0xe8
    e8ec:	0117cd04 	tsteq	r7, r4, lsl #26
    e8f0:	0117cccc 	tsteq	r7, ip, asr #25

0000e8f4 <LldpModuleShutDown>:
    e8f4:	e1a0c00d 	mov	ip, sp
    e8f8:	e3a03002 	mov	r3, #2
    e8fc:	e92dd9f0 	push	{r4, r5, r6, r7, r8, fp, ip, lr, pc}
    e900:	e24cb004 	sub	fp, ip, #4
    e904:	e59f619c 	ldr	r6, [pc, #412]	; eaa8 <LldpModuleShutDown+0x1b4>
    e908:	e24dd00c 	sub	sp, sp, #12
    e90c:	e3a07000 	mov	r7, #0
    e910:	e50b7028 	str	r7, [fp, #-40]	; 0x28
    e914:	e5c63a30 	strb	r3, [r6, #2608]	; 0xa30
    e918:	ebffffad 	bl	e7d4 <LldpModuleDisable>
    e91c:	e5d64058 	ldrb	r4, [r6, #88]	; 0x58
    e920:	eb002316 	bl	17580 <LldpUtilDeleteRBTree>
    e924:	e3540002 	cmp	r4, #2
    e928:	0a000011 	beq	e974 <LldpModuleShutDown+0x80>
    e92c:	ebfffc09 	bl	d958 <LldpMainMemClear>
    e930:	e5960004 	ldr	r0, [r6, #4]
    e934:	e596108c 	ldr	r1, [r6, #140]	; 0x8c
    e938:	eb003447 	bl	1ba5c <LldpTxUtlDeleteQMsg>
    e93c:	e5960008 	ldr	r0, [r6, #8]
    e940:	e5961090 	ldr	r1, [r6, #144]	; 0x90
    e944:	eb003444 	bl	1ba5c <LldpTxUtlDeleteQMsg>
    e948:	eb0048a4 	bl	20be0 <LldpPortDeRegisterWithIp>
    e94c:	e3500000 	cmp	r0, #0
    e950:	0a000005 	beq	e96c <LldpModuleShutDown+0x78>
    e954:	e59f314c 	ldr	r3, [pc, #332]	; eaa8 <LldpModuleShutDown+0x1b4>
    e958:	e3a01040 	mov	r1, #64	; 0x40
    e95c:	e59f2148 	ldr	r2, [pc, #328]	; eaac <LldpModuleShutDown+0x1b8>
    e960:	e5930a10 	ldr	r0, [r3, #2576]	; 0xa10
    e964:	e59f3144 	ldr	r3, [pc, #324]	; eab0 <LldpModuleShutDown+0x1bc>
    e968:	eb231312 	bl	8d35b8 <UtlTrcLog>
    e96c:	e24bd020 	sub	sp, fp, #32
    e970:	e89da9f0 	ldm	sp, {r4, r5, r6, r7, r8, fp, sp, pc}
    e974:	e1a05006 	mov	r5, r6
    e978:	e3a04001 	mov	r4, #1
    e97c:	e1a08006 	mov	r8, r6
    e980:	ea000003 	b	e994 <LldpModuleShutDown+0xa0>
    e984:	e2844001 	add	r4, r4, #1
    e988:	e2855004 	add	r5, r5, #4
    e98c:	e354001d 	cmp	r4, #29
    e990:	0a00001a 	beq	ea00 <LldpModuleShutDown+0x10c>
    e994:	e24b1028 	sub	r1, fp, #40	; 0x28
    e998:	e1a00004 	mov	r0, r4
    e99c:	eb00263e 	bl	1829c <LldpTxUtlGetLocPortEntry>
    e9a0:	e51b3028 	ldr	r3, [fp, #-40]	; 0x28
    e9a4:	e2530000 	subs	r0, r3, #0
    e9a8:	0afffff5 	beq	e984 <LldpModuleShutDown+0x90>
    e9ac:	eb003487 	bl	1bbd0 <LldpTxUtlClearPortInfo>
    e9b0:	e51b1028 	ldr	r1, [fp, #-40]	; 0x28
    e9b4:	e5913310 	ldr	r3, [r1, #784]	; 0x310
    e9b8:	e2530000 	subs	r0, r3, #0
    e9bc:	0a000001 	beq	e9c8 <LldpModuleShutDown+0xd4>
    e9c0:	eb002052 	bl	16b10 <LldpUtilPktFree>
    e9c4:	e51b1028 	ldr	r1, [fp, #-40]	; 0x28
    e9c8:	e596005c 	ldr	r0, [r6, #92]	; 0x5c
    e9cc:	eb22f96f 	bl	8ccf90 <MemReleaseMemBlock>
    e9d0:	e3700001 	cmn	r0, #1
    e9d4:	15857998 	strne	r7, [r5, #2456]	; 0x998
    e9d8:	1affffe9 	bne	e984 <LldpModuleShutDown+0x90>
    e9dc:	e5980a10 	ldr	r0, [r8, #2576]	; 0xa10
    e9e0:	e3a01d81 	mov	r1, #8256	; 0x2040
    e9e4:	e59f20c0 	ldr	r2, [pc, #192]	; eaac <LldpModuleShutDown+0x1b8>
    e9e8:	e2844001 	add	r4, r4, #1
    e9ec:	e59f30c0 	ldr	r3, [pc, #192]	; eab4 <LldpModuleShutDown+0x1c0>
    e9f0:	e2855004 	add	r5, r5, #4
    e9f4:	eb2312ef 	bl	8d35b8 <UtlTrcLog>
    e9f8:	e354001d 	cmp	r4, #29
    e9fc:	1affffe4 	bne	e994 <LldpModuleShutDown+0xa0>
    ea00:	e596005c 	ldr	r0, [r6, #92]	; 0x5c
    ea04:	e59f409c 	ldr	r4, [pc, #156]	; eaa8 <LldpModuleShutDown+0x1b4>
    ea08:	e3500000 	cmp	r0, #0
    ea0c:	1a000009 	bne	ea38 <LldpModuleShutDown+0x144>
    ea10:	e59630dc 	ldr	r3, [r6, #220]	; 0xdc
    ea14:	e59f408c 	ldr	r4, [pc, #140]	; eaa8 <LldpModuleShutDown+0x1b4>
    ea18:	e3530000 	cmp	r3, #0
    ea1c:	0a000002 	beq	ea2c <LldpModuleShutDown+0x138>
    ea20:	eb000569 	bl	ffcc <LldpTmrDeInit>
    ea24:	e3500001 	cmp	r0, #1
    ea28:	0a000008 	beq	ea50 <LldpModuleShutDown+0x15c>
    ea2c:	e3a03003 	mov	r3, #3
    ea30:	e5c63a30 	strb	r3, [r6, #2608]	; 0xa30
    ea34:	eaffffbc 	b	e92c <LldpModuleShutDown+0x38>
    ea38:	eb22f8c1 	bl	8ccd44 <MemDeleteMemPool>
    ea3c:	e3700001 	cmn	r0, #1
    ea40:	0a00000d 	beq	ea7c <LldpModuleShutDown+0x188>
    ea44:	e3a03000 	mov	r3, #0
    ea48:	e586305c 	str	r3, [r6, #92]	; 0x5c
    ea4c:	eaffffef 	b	ea10 <LldpModuleShutDown+0x11c>
    ea50:	e5940a10 	ldr	r0, [r4, #2576]	; 0xa10
    ea54:	e3a01020 	mov	r1, #32
    ea58:	e59f204c 	ldr	r2, [pc, #76]	; eaac <LldpModuleShutDown+0x1b8>
    ea5c:	e59f3054 	ldr	r3, [pc, #84]	; eab8 <LldpModuleShutDown+0x1c4>
    ea60:	eb2312d4 	bl	8d35b8 <UtlTrcLog>
    ea64:	e5940a10 	ldr	r0, [r4, #2576]	; 0xa10
    ea68:	e3a01d81 	mov	r1, #8256	; 0x2040
    ea6c:	e59f2038 	ldr	r2, [pc, #56]	; eaac <LldpModuleShutDown+0x1b8>
    ea70:	e59f3044 	ldr	r3, [pc, #68]	; eabc <LldpModuleShutDown+0x1c8>
    ea74:	eb2312cf 	bl	8d35b8 <UtlTrcLog>
    ea78:	eaffffeb 	b	ea2c <LldpModuleShutDown+0x138>
    ea7c:	e5940a10 	ldr	r0, [r4, #2576]	; 0xa10
    ea80:	e3a01020 	mov	r1, #32
    ea84:	e59f2020 	ldr	r2, [pc, #32]	; eaac <LldpModuleShutDown+0x1b8>
    ea88:	e59f3030 	ldr	r3, [pc, #48]	; eac0 <LldpModuleShutDown+0x1cc>
    ea8c:	eb2312c9 	bl	8d35b8 <UtlTrcLog>
    ea90:	e5940a10 	ldr	r0, [r4, #2576]	; 0xa10
    ea94:	e3a01d81 	mov	r1, #8256	; 0x2040
    ea98:	e59f200c 	ldr	r2, [pc, #12]	; eaac <LldpModuleShutDown+0x1b8>
    ea9c:	e59f3020 	ldr	r3, [pc, #32]	; eac4 <LldpModuleShutDown+0x1d0>
    eaa0:	eb2312c4 	bl	8d35b8 <UtlTrcLog>
    eaa4:	eaffffe6 	b	ea44 <LldpModuleShutDown+0x150>
    eaa8:	02342754 	eorseq	r2, r4, #22020096	; 0x1500000
    eaac:	0117bfdc 			; <UNDEFINED> instruction: 0x0117bfdc
    eab0:	0117ce84 	tsteq	r7, r4, lsl #29
    eab4:	0117cd44 	tsteq	r7, r4, asr #26
    eab8:	0117ce24 	tsteq	r7, r4, lsr #28
    eabc:	0117ce50 	tsteq	r7, r0, asr lr
    eac0:	0117cda8 	tsteq	r7, r8, lsr #27
    eac4:	0117cde4 	tsteq	r7, r4, ror #27


